
/home/lin/DandProject/sw/am-kernels/kernels/litenes/build/litenes-riscv64-nemu.elf:     file format elf64-littleriscv


Disassembly of section .text:

0000000080000000 <_start>:
    80000000:	00000413          	li	s0,0
    80000004:	00185117          	auipc	sp,0x185
    80000008:	ffc10113          	addi	sp,sp,-4 # 80185000 <_end>
    8000000c:	064040ef          	jal	ra,80004070 <_trm_init>

0000000080000010 <memory_readb>:
    80000010:	00d55713          	srli	a4,a0,0xd
    80000014:	00200693          	li	a3,2
    80000018:	00050793          	mv	a5,a0
    8000001c:	02d70663          	beq	a4,a3,80000048 <memory_readb+0x38>
    80000020:	00e6ea63          	bltu	a3,a4,80000034 <memory_readb+0x24>
    80000024:	02070463          	beqz	a4,8000004c <memory_readb+0x3c>
    80000028:	00100693          	li	a3,1
    8000002c:	02d71463          	bne	a4,a3,80000054 <memory_readb+0x44>
    80000030:	6f90206f          	j	80002f28 <ppuio_read>
    80000034:	00300693          	li	a3,3
    80000038:	00d71e63          	bne	a4,a3,80000054 <memory_readb+0x44>
    8000003c:	03351513          	slli	a0,a0,0x33
    80000040:	03355513          	srli	a0,a0,0x33
    80000044:	5140106f          	j	80001558 <cpu_ram_read>
    80000048:	72d0306f          	j	80003f74 <psgio_read>
    8000004c:	7ff57513          	andi	a0,a0,2047
    80000050:	5080106f          	j	80001558 <cpu_ram_read>
    80000054:	00078513          	mv	a0,a5
    80000058:	3c00306f          	j	80003418 <mmc_read>

000000008000005c <memory_writeb>:
    8000005c:	fe010113          	addi	sp,sp,-32
    80000060:	00004737          	lui	a4,0x4
    80000064:	00813823          	sd	s0,16(sp)
    80000068:	00113c23          	sd	ra,24(sp)
    8000006c:	00913423          	sd	s1,8(sp)
    80000070:	01470713          	addi	a4,a4,20 # 4014 <_entry_offset+0x4014>
    80000074:	00058413          	mv	s0,a1
    80000078:	04e50e63          	beq	a0,a4,800000d4 <memory_writeb+0x78>
    8000007c:	00d55713          	srli	a4,a0,0xd
    80000080:	00200693          	li	a3,2
    80000084:	00050793          	mv	a5,a0
    80000088:	0ad70463          	beq	a4,a3,80000130 <memory_writeb+0xd4>
    8000008c:	02e6e263          	bltu	a3,a4,800000b0 <memory_writeb+0x54>
    80000090:	08070463          	beqz	a4,80000118 <memory_writeb+0xbc>
    80000094:	00100693          	li	a3,1
    80000098:	0ad71663          	bne	a4,a3,80000144 <memory_writeb+0xe8>
    8000009c:	01013403          	ld	s0,16(sp)
    800000a0:	01813083          	ld	ra,24(sp)
    800000a4:	00813483          	ld	s1,8(sp)
    800000a8:	02010113          	addi	sp,sp,32
    800000ac:	0040306f          	j	800030b0 <ppuio_write>
    800000b0:	00300693          	li	a3,3
    800000b4:	08d71863          	bne	a4,a3,80000144 <memory_writeb+0xe8>
    800000b8:	01013403          	ld	s0,16(sp)
    800000bc:	01813083          	ld	ra,24(sp)
    800000c0:	00813483          	ld	s1,8(sp)
    800000c4:	03351793          	slli	a5,a0,0x33
    800000c8:	0337d513          	srli	a0,a5,0x33
    800000cc:	02010113          	addi	sp,sp,32
    800000d0:	4a00106f          	j	80001570 <cpu_ram_write>
    800000d4:	00859413          	slli	s0,a1,0x8
    800000d8:	1004049b          	addiw	s1,s0,256
    800000dc:	03049493          	slli	s1,s1,0x30
    800000e0:	0304d493          	srli	s1,s1,0x30
    800000e4:	0004849b          	sext.w	s1,s1
    800000e8:	00040513          	mv	a0,s0
    800000ec:	0014041b          	addiw	s0,s0,1
    800000f0:	03041413          	slli	s0,s0,0x30
    800000f4:	464010ef          	jal	ra,80001558 <cpu_ram_read>
    800000f8:	03045413          	srli	s0,s0,0x30
    800000fc:	284030ef          	jal	ra,80003380 <ppu_sprram_write>
    80000100:	fe9414e3          	bne	s0,s1,800000e8 <memory_writeb+0x8c>
    80000104:	01813083          	ld	ra,24(sp)
    80000108:	01013403          	ld	s0,16(sp)
    8000010c:	00813483          	ld	s1,8(sp)
    80000110:	02010113          	addi	sp,sp,32
    80000114:	00008067          	ret
    80000118:	01013403          	ld	s0,16(sp)
    8000011c:	01813083          	ld	ra,24(sp)
    80000120:	00813483          	ld	s1,8(sp)
    80000124:	7ff57513          	andi	a0,a0,2047
    80000128:	02010113          	addi	sp,sp,32
    8000012c:	4440106f          	j	80001570 <cpu_ram_write>
    80000130:	01013403          	ld	s0,16(sp)
    80000134:	01813083          	ld	ra,24(sp)
    80000138:	00813483          	ld	s1,8(sp)
    8000013c:	02010113          	addi	sp,sp,32
    80000140:	6910306f          	j	80003fd0 <psgio_write>
    80000144:	00040593          	mv	a1,s0
    80000148:	01013403          	ld	s0,16(sp)
    8000014c:	01813083          	ld	ra,24(sp)
    80000150:	00813483          	ld	s1,8(sp)
    80000154:	00078513          	mv	a0,a5
    80000158:	02010113          	addi	sp,sp,32
    8000015c:	2d00306f          	j	8000342c <mmc_write>

0000000080000160 <memory_readw>:
    80000160:	ff010113          	addi	sp,sp,-16
    80000164:	00113423          	sd	ra,8(sp)
    80000168:	00813023          	sd	s0,0(sp)
    8000016c:	00050413          	mv	s0,a0
    80000170:	ea1ff0ef          	jal	ra,80000010 <memory_readb>
    80000174:	00050793          	mv	a5,a0
    80000178:	0014051b          	addiw	a0,s0,1
    8000017c:	03051513          	slli	a0,a0,0x30
    80000180:	03055513          	srli	a0,a0,0x30
    80000184:	00078413          	mv	s0,a5
    80000188:	e89ff0ef          	jal	ra,80000010 <memory_readb>
    8000018c:	0085179b          	slliw	a5,a0,0x8
    80000190:	00813083          	ld	ra,8(sp)
    80000194:	0087853b          	addw	a0,a5,s0
    80000198:	00013403          	ld	s0,0(sp)
    8000019c:	03051513          	slli	a0,a0,0x30
    800001a0:	03055513          	srli	a0,a0,0x30
    800001a4:	01010113          	addi	sp,sp,16
    800001a8:	00008067          	ret

00000000800001ac <memory_writew>:
    800001ac:	fe010113          	addi	sp,sp,-32
    800001b0:	00913423          	sd	s1,8(sp)
    800001b4:	00058493          	mv	s1,a1
    800001b8:	0ff5f593          	andi	a1,a1,255
    800001bc:	00813823          	sd	s0,16(sp)
    800001c0:	00113c23          	sd	ra,24(sp)
    800001c4:	00050413          	mv	s0,a0
    800001c8:	e95ff0ef          	jal	ra,8000005c <memory_writeb>
    800001cc:	0014051b          	addiw	a0,s0,1
    800001d0:	01013403          	ld	s0,16(sp)
    800001d4:	01813083          	ld	ra,24(sp)
    800001d8:	0084d593          	srli	a1,s1,0x8
    800001dc:	00813483          	ld	s1,8(sp)
    800001e0:	03051513          	slli	a0,a0,0x30
    800001e4:	03055513          	srli	a0,a0,0x30
    800001e8:	02010113          	addi	sp,sp,32
    800001ec:	e71ff06f          	j	8000005c <memory_writeb>

00000000800001f0 <____FE____>:
    800001f0:	00008067          	ret

00000000800001f4 <cpu_op_and>:
    800001f4:	00164717          	auipc	a4,0x164
    800001f8:	1a470713          	addi	a4,a4,420 # 80164398 <cpu>
    800001fc:	00374683          	lbu	a3,3(a4)
    80000200:	00164797          	auipc	a5,0x164
    80000204:	1907c783          	lbu	a5,400(a5) # 80164390 <op_value>
    80000208:	00006617          	auipc	a2,0x6
    8000020c:	a0060613          	addi	a2,a2,-1536 # 80005c08 <cpu_zn_flag_table>
    80000210:	00f6f6b3          	and	a3,a3,a5
    80000214:	00d60633          	add	a2,a2,a3
    80000218:	00674783          	lbu	a5,6(a4)
    8000021c:	00064603          	lbu	a2,0(a2)
    80000220:	00d701a3          	sb	a3,3(a4)
    80000224:	07d7f793          	andi	a5,a5,125
    80000228:	00c7e7b3          	or	a5,a5,a2
    8000022c:	00f70323          	sb	a5,6(a4)
    80000230:	00008067          	ret

0000000080000234 <cpu_op_eor>:
    80000234:	00164697          	auipc	a3,0x164
    80000238:	16468693          	addi	a3,a3,356 # 80164398 <cpu>
    8000023c:	0036c783          	lbu	a5,3(a3)
    80000240:	00164717          	auipc	a4,0x164
    80000244:	15074703          	lbu	a4,336(a4) # 80164390 <op_value>
    80000248:	00006617          	auipc	a2,0x6
    8000024c:	9c060613          	addi	a2,a2,-1600 # 80005c08 <cpu_zn_flag_table>
    80000250:	00e7c7b3          	xor	a5,a5,a4
    80000254:	0ff7f793          	andi	a5,a5,255
    80000258:	0066c703          	lbu	a4,6(a3)
    8000025c:	00f60633          	add	a2,a2,a5
    80000260:	00064603          	lbu	a2,0(a2)
    80000264:	07d77713          	andi	a4,a4,125
    80000268:	00f681a3          	sb	a5,3(a3)
    8000026c:	00c767b3          	or	a5,a4,a2
    80000270:	00f68323          	sb	a5,6(a3)
    80000274:	00008067          	ret

0000000080000278 <cpu_op_ora>:
    80000278:	00164697          	auipc	a3,0x164
    8000027c:	12068693          	addi	a3,a3,288 # 80164398 <cpu>
    80000280:	0036c783          	lbu	a5,3(a3)
    80000284:	00164717          	auipc	a4,0x164
    80000288:	10c74703          	lbu	a4,268(a4) # 80164390 <op_value>
    8000028c:	00006617          	auipc	a2,0x6
    80000290:	97c60613          	addi	a2,a2,-1668 # 80005c08 <cpu_zn_flag_table>
    80000294:	00e7e7b3          	or	a5,a5,a4
    80000298:	0ff7f793          	andi	a5,a5,255
    8000029c:	0066c703          	lbu	a4,6(a3)
    800002a0:	00f60633          	add	a2,a2,a5
    800002a4:	00064603          	lbu	a2,0(a2)
    800002a8:	07d77713          	andi	a4,a4,125
    800002ac:	00f681a3          	sb	a5,3(a3)
    800002b0:	00c767b3          	or	a5,a4,a2
    800002b4:	00f68323          	sb	a5,6(a3)
    800002b8:	00008067          	ret

00000000800002bc <cpu_op_lda>:
    800002bc:	00164617          	auipc	a2,0x164
    800002c0:	0d462603          	lw	a2,212(a2) # 80164390 <op_value>
    800002c4:	00164717          	auipc	a4,0x164
    800002c8:	0d470713          	addi	a4,a4,212 # 80164398 <cpu>
    800002cc:	0ff67593          	andi	a1,a2,255
    800002d0:	00006697          	auipc	a3,0x6
    800002d4:	93868693          	addi	a3,a3,-1736 # 80005c08 <cpu_zn_flag_table>
    800002d8:	00674783          	lbu	a5,6(a4)
    800002dc:	00b686b3          	add	a3,a3,a1
    800002e0:	0006c683          	lbu	a3,0(a3)
    800002e4:	07d7f793          	andi	a5,a5,125
    800002e8:	00c701a3          	sb	a2,3(a4)
    800002ec:	00d7e7b3          	or	a5,a5,a3
    800002f0:	00f70323          	sb	a5,6(a4)
    800002f4:	00008067          	ret

00000000800002f8 <cpu_op_ldx>:
    800002f8:	00164617          	auipc	a2,0x164
    800002fc:	09862603          	lw	a2,152(a2) # 80164390 <op_value>
    80000300:	00164717          	auipc	a4,0x164
    80000304:	09870713          	addi	a4,a4,152 # 80164398 <cpu>
    80000308:	0ff67593          	andi	a1,a2,255
    8000030c:	00006697          	auipc	a3,0x6
    80000310:	8fc68693          	addi	a3,a3,-1796 # 80005c08 <cpu_zn_flag_table>
    80000314:	00674783          	lbu	a5,6(a4)
    80000318:	00b686b3          	add	a3,a3,a1
    8000031c:	0006c683          	lbu	a3,0(a3)
    80000320:	07d7f793          	andi	a5,a5,125
    80000324:	00c70223          	sb	a2,4(a4)
    80000328:	00d7e7b3          	or	a5,a5,a3
    8000032c:	00f70323          	sb	a5,6(a4)
    80000330:	00008067          	ret

0000000080000334 <cpu_op_ldy>:
    80000334:	00164617          	auipc	a2,0x164
    80000338:	05c62603          	lw	a2,92(a2) # 80164390 <op_value>
    8000033c:	00164717          	auipc	a4,0x164
    80000340:	05c70713          	addi	a4,a4,92 # 80164398 <cpu>
    80000344:	0ff67593          	andi	a1,a2,255
    80000348:	00006697          	auipc	a3,0x6
    8000034c:	8c068693          	addi	a3,a3,-1856 # 80005c08 <cpu_zn_flag_table>
    80000350:	00674783          	lbu	a5,6(a4)
    80000354:	00b686b3          	add	a3,a3,a1
    80000358:	0006c683          	lbu	a3,0(a3)
    8000035c:	07d7f793          	andi	a5,a5,125
    80000360:	00c702a3          	sb	a2,5(a4)
    80000364:	00d7e7b3          	or	a5,a5,a3
    80000368:	00f70323          	sb	a5,6(a4)
    8000036c:	00008067          	ret

0000000080000370 <cpu_op_tax>:
    80000370:	00164717          	auipc	a4,0x164
    80000374:	02870713          	addi	a4,a4,40 # 80164398 <cpu>
    80000378:	00374603          	lbu	a2,3(a4)
    8000037c:	00006697          	auipc	a3,0x6
    80000380:	88c68693          	addi	a3,a3,-1908 # 80005c08 <cpu_zn_flag_table>
    80000384:	00674783          	lbu	a5,6(a4)
    80000388:	00c686b3          	add	a3,a3,a2
    8000038c:	0006c683          	lbu	a3,0(a3)
    80000390:	07d7f793          	andi	a5,a5,125
    80000394:	00c70223          	sb	a2,4(a4)
    80000398:	00d7e7b3          	or	a5,a5,a3
    8000039c:	00f70323          	sb	a5,6(a4)
    800003a0:	00008067          	ret

00000000800003a4 <cpu_op_txa>:
    800003a4:	00164717          	auipc	a4,0x164
    800003a8:	ff470713          	addi	a4,a4,-12 # 80164398 <cpu>
    800003ac:	00474603          	lbu	a2,4(a4)
    800003b0:	00006697          	auipc	a3,0x6
    800003b4:	85868693          	addi	a3,a3,-1960 # 80005c08 <cpu_zn_flag_table>
    800003b8:	00674783          	lbu	a5,6(a4)
    800003bc:	00c686b3          	add	a3,a3,a2
    800003c0:	0006c683          	lbu	a3,0(a3)
    800003c4:	07d7f793          	andi	a5,a5,125
    800003c8:	00c701a3          	sb	a2,3(a4)
    800003cc:	00d7e7b3          	or	a5,a5,a3
    800003d0:	00f70323          	sb	a5,6(a4)
    800003d4:	00008067          	ret

00000000800003d8 <cpu_op_tay>:
    800003d8:	00164717          	auipc	a4,0x164
    800003dc:	fc070713          	addi	a4,a4,-64 # 80164398 <cpu>
    800003e0:	00374603          	lbu	a2,3(a4)
    800003e4:	00006697          	auipc	a3,0x6
    800003e8:	82468693          	addi	a3,a3,-2012 # 80005c08 <cpu_zn_flag_table>
    800003ec:	00674783          	lbu	a5,6(a4)
    800003f0:	00c686b3          	add	a3,a3,a2
    800003f4:	0006c683          	lbu	a3,0(a3)
    800003f8:	07d7f793          	andi	a5,a5,125
    800003fc:	00c702a3          	sb	a2,5(a4)
    80000400:	00d7e7b3          	or	a5,a5,a3
    80000404:	00f70323          	sb	a5,6(a4)
    80000408:	00008067          	ret

000000008000040c <cpu_op_tya>:
    8000040c:	00164717          	auipc	a4,0x164
    80000410:	f8c70713          	addi	a4,a4,-116 # 80164398 <cpu>
    80000414:	00574603          	lbu	a2,5(a4)
    80000418:	00005697          	auipc	a3,0x5
    8000041c:	7f068693          	addi	a3,a3,2032 # 80005c08 <cpu_zn_flag_table>
    80000420:	00674783          	lbu	a5,6(a4)
    80000424:	00c686b3          	add	a3,a3,a2
    80000428:	0006c683          	lbu	a3,0(a3)
    8000042c:	07d7f793          	andi	a5,a5,125
    80000430:	00c701a3          	sb	a2,3(a4)
    80000434:	00d7e7b3          	or	a5,a5,a3
    80000438:	00f70323          	sb	a5,6(a4)
    8000043c:	00008067          	ret

0000000080000440 <cpu_op_tsx>:
    80000440:	00164717          	auipc	a4,0x164
    80000444:	f5870713          	addi	a4,a4,-168 # 80164398 <cpu>
    80000448:	00274603          	lbu	a2,2(a4)
    8000044c:	00005697          	auipc	a3,0x5
    80000450:	7bc68693          	addi	a3,a3,1980 # 80005c08 <cpu_zn_flag_table>
    80000454:	00674783          	lbu	a5,6(a4)
    80000458:	00c686b3          	add	a3,a3,a2
    8000045c:	0006c683          	lbu	a3,0(a3)
    80000460:	07d7f793          	andi	a5,a5,125
    80000464:	00c70223          	sb	a2,4(a4)
    80000468:	00d7e7b3          	or	a5,a5,a3
    8000046c:	00f70323          	sb	a5,6(a4)
    80000470:	00008067          	ret

0000000080000474 <cpu_op_txs>:
    80000474:	00164797          	auipc	a5,0x164
    80000478:	f2478793          	addi	a5,a5,-220 # 80164398 <cpu>
    8000047c:	0047c703          	lbu	a4,4(a5)
    80000480:	00e78123          	sb	a4,2(a5)
    80000484:	00008067          	ret

0000000080000488 <cpu_op_jmp>:
    80000488:	00164797          	auipc	a5,0x164
    8000048c:	f0c7a783          	lw	a5,-244(a5) # 80164394 <op_address>
    80000490:	00164717          	auipc	a4,0x164
    80000494:	f0f71423          	sh	a5,-248(a4) # 80164398 <cpu>
    80000498:	00008067          	ret

000000008000049c <cpu_op_inx>:
    8000049c:	00164697          	auipc	a3,0x164
    800004a0:	efc68693          	addi	a3,a3,-260 # 80164398 <cpu>
    800004a4:	0046c783          	lbu	a5,4(a3)
    800004a8:	00005617          	auipc	a2,0x5
    800004ac:	76060613          	addi	a2,a2,1888 # 80005c08 <cpu_zn_flag_table>
    800004b0:	0066c703          	lbu	a4,6(a3)
    800004b4:	0017879b          	addiw	a5,a5,1
    800004b8:	0ff7f793          	andi	a5,a5,255
    800004bc:	00f60633          	add	a2,a2,a5
    800004c0:	00064603          	lbu	a2,0(a2)
    800004c4:	07d77713          	andi	a4,a4,125
    800004c8:	00f68223          	sb	a5,4(a3)
    800004cc:	00c767b3          	or	a5,a4,a2
    800004d0:	00f68323          	sb	a5,6(a3)
    800004d4:	00008067          	ret

00000000800004d8 <cpu_op_iny>:
    800004d8:	00164697          	auipc	a3,0x164
    800004dc:	ec068693          	addi	a3,a3,-320 # 80164398 <cpu>
    800004e0:	0056c783          	lbu	a5,5(a3)
    800004e4:	00005617          	auipc	a2,0x5
    800004e8:	72460613          	addi	a2,a2,1828 # 80005c08 <cpu_zn_flag_table>
    800004ec:	0066c703          	lbu	a4,6(a3)
    800004f0:	0017879b          	addiw	a5,a5,1
    800004f4:	0ff7f793          	andi	a5,a5,255
    800004f8:	00f60633          	add	a2,a2,a5
    800004fc:	00064603          	lbu	a2,0(a2)
    80000500:	07d77713          	andi	a4,a4,125
    80000504:	00f682a3          	sb	a5,5(a3)
    80000508:	00c767b3          	or	a5,a4,a2
    8000050c:	00f68323          	sb	a5,6(a3)
    80000510:	00008067          	ret

0000000080000514 <cpu_op_dex>:
    80000514:	00164697          	auipc	a3,0x164
    80000518:	e8468693          	addi	a3,a3,-380 # 80164398 <cpu>
    8000051c:	0046c783          	lbu	a5,4(a3)
    80000520:	00005617          	auipc	a2,0x5
    80000524:	6e860613          	addi	a2,a2,1768 # 80005c08 <cpu_zn_flag_table>
    80000528:	0066c703          	lbu	a4,6(a3)
    8000052c:	fff7879b          	addiw	a5,a5,-1
    80000530:	0ff7f793          	andi	a5,a5,255
    80000534:	00f60633          	add	a2,a2,a5
    80000538:	00064603          	lbu	a2,0(a2)
    8000053c:	07d77713          	andi	a4,a4,125
    80000540:	00f68223          	sb	a5,4(a3)
    80000544:	00c767b3          	or	a5,a4,a2
    80000548:	00f68323          	sb	a5,6(a3)
    8000054c:	00008067          	ret

0000000080000550 <cpu_op_dey>:
    80000550:	00164697          	auipc	a3,0x164
    80000554:	e4868693          	addi	a3,a3,-440 # 80164398 <cpu>
    80000558:	0056c783          	lbu	a5,5(a3)
    8000055c:	00005617          	auipc	a2,0x5
    80000560:	6ac60613          	addi	a2,a2,1708 # 80005c08 <cpu_zn_flag_table>
    80000564:	0066c703          	lbu	a4,6(a3)
    80000568:	fff7879b          	addiw	a5,a5,-1
    8000056c:	0ff7f793          	andi	a5,a5,255
    80000570:	00f60633          	add	a2,a2,a5
    80000574:	00064603          	lbu	a2,0(a2)
    80000578:	07d77713          	andi	a4,a4,125
    8000057c:	00f682a3          	sb	a5,5(a3)
    80000580:	00c767b3          	or	a5,a4,a2
    80000584:	00f68323          	sb	a5,6(a3)
    80000588:	00008067          	ret

000000008000058c <cpu_op_lax>:
    8000058c:	00164717          	auipc	a4,0x164
    80000590:	e0472703          	lw	a4,-508(a4) # 80164390 <op_value>
    80000594:	00164697          	auipc	a3,0x164
    80000598:	e0468693          	addi	a3,a3,-508 # 80164398 <cpu>
    8000059c:	0ff77593          	andi	a1,a4,255
    800005a0:	00005617          	auipc	a2,0x5
    800005a4:	66860613          	addi	a2,a2,1640 # 80005c08 <cpu_zn_flag_table>
    800005a8:	0066c783          	lbu	a5,6(a3)
    800005ac:	00b60633          	add	a2,a2,a1
    800005b0:	00064603          	lbu	a2,0(a2)
    800005b4:	07d7f793          	andi	a5,a5,125
    800005b8:	00b68223          	sb	a1,4(a3)
    800005bc:	00c7e7b3          	or	a5,a5,a2
    800005c0:	00b681a3          	sb	a1,3(a3)
    800005c4:	00f68323          	sb	a5,6(a3)
    800005c8:	00008067          	ret

00000000800005cc <cpu_op_rts>:
    800005cc:	ff010113          	addi	sp,sp,-16
    800005d0:	00813023          	sd	s0,0(sp)
    800005d4:	00164417          	auipc	s0,0x164
    800005d8:	dc440413          	addi	s0,s0,-572 # 80164398 <cpu>
    800005dc:	00244783          	lbu	a5,2(s0)
    800005e0:	00113423          	sd	ra,8(sp)
    800005e4:	0027879b          	addiw	a5,a5,2
    800005e8:	0ff7f793          	andi	a5,a5,255
    800005ec:	0ff78513          	addi	a0,a5,255
    800005f0:	00f40123          	sb	a5,2(s0)
    800005f4:	b6dff0ef          	jal	ra,80000160 <memory_readw>
    800005f8:	0015051b          	addiw	a0,a0,1
    800005fc:	00813083          	ld	ra,8(sp)
    80000600:	00a41023          	sh	a0,0(s0)
    80000604:	00013403          	ld	s0,0(sp)
    80000608:	01010113          	addi	sp,sp,16
    8000060c:	00008067          	ret

0000000080000610 <cpu_op_sta>:
    80000610:	00164597          	auipc	a1,0x164
    80000614:	d8b5c583          	lbu	a1,-629(a1) # 8016439b <cpu+0x3>
    80000618:	00164517          	auipc	a0,0x164
    8000061c:	d7c55503          	lhu	a0,-644(a0) # 80164394 <op_address>
    80000620:	a3dff06f          	j	8000005c <memory_writeb>

0000000080000624 <cpu_op_stx>:
    80000624:	00164597          	auipc	a1,0x164
    80000628:	d785c583          	lbu	a1,-648(a1) # 8016439c <cpu+0x4>
    8000062c:	00164517          	auipc	a0,0x164
    80000630:	d6855503          	lhu	a0,-664(a0) # 80164394 <op_address>
    80000634:	a29ff06f          	j	8000005c <memory_writeb>

0000000080000638 <cpu_op_sty>:
    80000638:	00164597          	auipc	a1,0x164
    8000063c:	d655c583          	lbu	a1,-667(a1) # 8016439d <cpu+0x5>
    80000640:	00164517          	auipc	a0,0x164
    80000644:	d5455503          	lhu	a0,-684(a0) # 80164394 <op_address>
    80000648:	a15ff06f          	j	8000005c <memory_writeb>

000000008000064c <cpu_op_inc>:
    8000064c:	ff010113          	addi	sp,sp,-16
    80000650:	00813023          	sd	s0,0(sp)
    80000654:	00164417          	auipc	s0,0x164
    80000658:	d3c42403          	lw	s0,-708(s0) # 80164390 <op_value>
    8000065c:	0014041b          	addiw	s0,s0,1
    80000660:	0ff47413          	andi	s0,s0,255
    80000664:	00040593          	mv	a1,s0
    80000668:	00164517          	auipc	a0,0x164
    8000066c:	d2c55503          	lhu	a0,-724(a0) # 80164394 <op_address>
    80000670:	00113423          	sd	ra,8(sp)
    80000674:	9e9ff0ef          	jal	ra,8000005c <memory_writeb>
    80000678:	00164717          	auipc	a4,0x164
    8000067c:	d2070713          	addi	a4,a4,-736 # 80164398 <cpu>
    80000680:	00005597          	auipc	a1,0x5
    80000684:	58858593          	addi	a1,a1,1416 # 80005c08 <cpu_zn_flag_table>
    80000688:	00674783          	lbu	a5,6(a4)
    8000068c:	008585b3          	add	a1,a1,s0
    80000690:	0005c683          	lbu	a3,0(a1)
    80000694:	07d7f793          	andi	a5,a5,125
    80000698:	00d7e7b3          	or	a5,a5,a3
    8000069c:	00f70323          	sb	a5,6(a4)
    800006a0:	00813083          	ld	ra,8(sp)
    800006a4:	00013403          	ld	s0,0(sp)
    800006a8:	01010113          	addi	sp,sp,16
    800006ac:	00008067          	ret

00000000800006b0 <cpu_op_dec>:
    800006b0:	ff010113          	addi	sp,sp,-16
    800006b4:	00813023          	sd	s0,0(sp)
    800006b8:	00164417          	auipc	s0,0x164
    800006bc:	cd842403          	lw	s0,-808(s0) # 80164390 <op_value>
    800006c0:	fff4041b          	addiw	s0,s0,-1
    800006c4:	0ff47413          	andi	s0,s0,255
    800006c8:	00040593          	mv	a1,s0
    800006cc:	00164517          	auipc	a0,0x164
    800006d0:	cc855503          	lhu	a0,-824(a0) # 80164394 <op_address>
    800006d4:	00113423          	sd	ra,8(sp)
    800006d8:	985ff0ef          	jal	ra,8000005c <memory_writeb>
    800006dc:	00164717          	auipc	a4,0x164
    800006e0:	cbc70713          	addi	a4,a4,-836 # 80164398 <cpu>
    800006e4:	00005597          	auipc	a1,0x5
    800006e8:	52458593          	addi	a1,a1,1316 # 80005c08 <cpu_zn_flag_table>
    800006ec:	00674783          	lbu	a5,6(a4)
    800006f0:	008585b3          	add	a1,a1,s0
    800006f4:	0005c683          	lbu	a3,0(a1)
    800006f8:	07d7f793          	andi	a5,a5,125
    800006fc:	00d7e7b3          	or	a5,a5,a3
    80000700:	00f70323          	sb	a5,6(a4)
    80000704:	00813083          	ld	ra,8(sp)
    80000708:	00013403          	ld	s0,0(sp)
    8000070c:	01010113          	addi	sp,sp,16
    80000710:	00008067          	ret

0000000080000714 <cpu_op_axa>:
    80000714:	00164797          	auipc	a5,0x164
    80000718:	c8478793          	addi	a5,a5,-892 # 80164398 <cpu>
    8000071c:	0037c583          	lbu	a1,3(a5)
    80000720:	0047c703          	lbu	a4,4(a5)
    80000724:	00164517          	auipc	a0,0x164
    80000728:	c7052503          	lw	a0,-912(a0) # 80164394 <op_address>
    8000072c:	4085579b          	sraiw	a5,a0,0x8
    80000730:	00e5f5b3          	and	a1,a1,a4
    80000734:	00f5f5b3          	and	a1,a1,a5
    80000738:	03051513          	slli	a0,a0,0x30
    8000073c:	0ff5f593          	andi	a1,a1,255
    80000740:	03055513          	srli	a0,a0,0x30
    80000744:	919ff06f          	j	8000005c <memory_writeb>

0000000080000748 <cpu_op_axs>:
    80000748:	00164797          	auipc	a5,0x164
    8000074c:	c5078793          	addi	a5,a5,-944 # 80164398 <cpu>
    80000750:	0047c703          	lbu	a4,4(a5)
    80000754:	0037c583          	lbu	a1,3(a5)
    80000758:	00164517          	auipc	a0,0x164
    8000075c:	c3c55503          	lhu	a0,-964(a0) # 80164394 <op_address>
    80000760:	00e5f5b3          	and	a1,a1,a4
    80000764:	8f9ff06f          	j	8000005c <memory_writeb>

0000000080000768 <cpu_op_php>:
    80000768:	00164797          	auipc	a5,0x164
    8000076c:	c3078793          	addi	a5,a5,-976 # 80164398 <cpu>
    80000770:	0027c503          	lbu	a0,2(a5)
    80000774:	0067c583          	lbu	a1,6(a5)
    80000778:	fff5071b          	addiw	a4,a0,-1
    8000077c:	0305e593          	ori	a1,a1,48
    80000780:	10050513          	addi	a0,a0,256
    80000784:	00e78123          	sb	a4,2(a5)
    80000788:	8d5ff06f          	j	8000005c <memory_writeb>

000000008000078c <cpu_op_pha>:
    8000078c:	00164797          	auipc	a5,0x164
    80000790:	c0c78793          	addi	a5,a5,-1012 # 80164398 <cpu>
    80000794:	0027c503          	lbu	a0,2(a5)
    80000798:	0037c583          	lbu	a1,3(a5)
    8000079c:	fff5071b          	addiw	a4,a0,-1
    800007a0:	10050513          	addi	a0,a0,256
    800007a4:	00e78123          	sb	a4,2(a5)
    800007a8:	8b5ff06f          	j	8000005c <memory_writeb>

00000000800007ac <cpu_op_jsr>:
    800007ac:	ff010113          	addi	sp,sp,-16
    800007b0:	00813023          	sd	s0,0(sp)
    800007b4:	00164417          	auipc	s0,0x164
    800007b8:	be440413          	addi	s0,s0,-1052 # 80164398 <cpu>
    800007bc:	00045583          	lhu	a1,0(s0)
    800007c0:	00244503          	lbu	a0,2(s0)
    800007c4:	00113423          	sd	ra,8(sp)
    800007c8:	fff5859b          	addiw	a1,a1,-1
    800007cc:	03059593          	slli	a1,a1,0x30
    800007d0:	0305d593          	srli	a1,a1,0x30
    800007d4:	0ff50513          	addi	a0,a0,255
    800007d8:	9d5ff0ef          	jal	ra,800001ac <memory_writew>
    800007dc:	00244783          	lbu	a5,2(s0)
    800007e0:	00164717          	auipc	a4,0x164
    800007e4:	bb472703          	lw	a4,-1100(a4) # 80164394 <op_address>
    800007e8:	00813083          	ld	ra,8(sp)
    800007ec:	ffe7879b          	addiw	a5,a5,-2
    800007f0:	00e41023          	sh	a4,0(s0)
    800007f4:	00f40123          	sb	a5,2(s0)
    800007f8:	00013403          	ld	s0,0(sp)
    800007fc:	01010113          	addi	sp,sp,16
    80000800:	00008067          	ret

0000000080000804 <cpu_op_brk>:
    80000804:	ff010113          	addi	sp,sp,-16
    80000808:	00813023          	sd	s0,0(sp)
    8000080c:	00164417          	auipc	s0,0x164
    80000810:	b8c40413          	addi	s0,s0,-1140 # 80164398 <cpu>
    80000814:	00045583          	lhu	a1,0(s0)
    80000818:	00244503          	lbu	a0,2(s0)
    8000081c:	00113423          	sd	ra,8(sp)
    80000820:	fff5859b          	addiw	a1,a1,-1
    80000824:	03059593          	slli	a1,a1,0x30
    80000828:	0305d593          	srli	a1,a1,0x30
    8000082c:	0ff50513          	addi	a0,a0,255
    80000830:	97dff0ef          	jal	ra,800001ac <memory_writew>
    80000834:	00244783          	lbu	a5,2(s0)
    80000838:	00644583          	lbu	a1,6(s0)
    8000083c:	ffe7851b          	addiw	a0,a5,-2
    80000840:	0ff57513          	andi	a0,a0,255
    80000844:	1005051b          	addiw	a0,a0,256
    80000848:	03051513          	slli	a0,a0,0x30
    8000084c:	ffd7879b          	addiw	a5,a5,-3
    80000850:	03055513          	srli	a0,a0,0x30
    80000854:	00f40123          	sb	a5,2(s0)
    80000858:	805ff0ef          	jal	ra,8000005c <memory_writeb>
    8000085c:	00644783          	lbu	a5,6(s0)
    80000860:	00010537          	lui	a0,0x10
    80000864:	ffa50513          	addi	a0,a0,-6 # fffa <_entry_offset+0xfffa>
    80000868:	0307e793          	ori	a5,a5,48
    8000086c:	00f40323          	sb	a5,6(s0)
    80000870:	8f1ff0ef          	jal	ra,80000160 <memory_readw>
    80000874:	00813083          	ld	ra,8(sp)
    80000878:	00a41023          	sh	a0,0(s0)
    8000087c:	00013403          	ld	s0,0(sp)
    80000880:	01010113          	addi	sp,sp,16
    80000884:	00008067          	ret

0000000080000888 <cpu_op_pla>:
    80000888:	ff010113          	addi	sp,sp,-16
    8000088c:	00813023          	sd	s0,0(sp)
    80000890:	00164417          	auipc	s0,0x164
    80000894:	b0840413          	addi	s0,s0,-1272 # 80164398 <cpu>
    80000898:	00244783          	lbu	a5,2(s0)
    8000089c:	00113423          	sd	ra,8(sp)
    800008a0:	0017879b          	addiw	a5,a5,1
    800008a4:	0ff7f793          	andi	a5,a5,255
    800008a8:	10078513          	addi	a0,a5,256
    800008ac:	00f40123          	sb	a5,2(s0)
    800008b0:	f60ff0ef          	jal	ra,80000010 <memory_readb>
    800008b4:	00005717          	auipc	a4,0x5
    800008b8:	35470713          	addi	a4,a4,852 # 80005c08 <cpu_zn_flag_table>
    800008bc:	00644783          	lbu	a5,6(s0)
    800008c0:	00a70733          	add	a4,a4,a0
    800008c4:	00074703          	lbu	a4,0(a4)
    800008c8:	07d7f793          	andi	a5,a5,125
    800008cc:	00813083          	ld	ra,8(sp)
    800008d0:	00e7e7b3          	or	a5,a5,a4
    800008d4:	00a401a3          	sb	a0,3(s0)
    800008d8:	00f40323          	sb	a5,6(s0)
    800008dc:	00013403          	ld	s0,0(sp)
    800008e0:	01010113          	addi	sp,sp,16
    800008e4:	00008067          	ret

00000000800008e8 <cpu_op_plp>:
    800008e8:	ff010113          	addi	sp,sp,-16
    800008ec:	00813023          	sd	s0,0(sp)
    800008f0:	00164417          	auipc	s0,0x164
    800008f4:	aa840413          	addi	s0,s0,-1368 # 80164398 <cpu>
    800008f8:	00244783          	lbu	a5,2(s0)
    800008fc:	00113423          	sd	ra,8(sp)
    80000900:	0017879b          	addiw	a5,a5,1
    80000904:	0ff7f793          	andi	a5,a5,255
    80000908:	10078513          	addi	a0,a5,256
    8000090c:	00f40123          	sb	a5,2(s0)
    80000910:	f00ff0ef          	jal	ra,80000010 <memory_readb>
    80000914:	fcf57513          	andi	a0,a0,-49
    80000918:	02056513          	ori	a0,a0,32
    8000091c:	00813083          	ld	ra,8(sp)
    80000920:	00a40323          	sb	a0,6(s0)
    80000924:	00013403          	ld	s0,0(sp)
    80000928:	01010113          	addi	sp,sp,16
    8000092c:	00008067          	ret

0000000080000930 <cpu_op_rti>:
    80000930:	ff010113          	addi	sp,sp,-16
    80000934:	00813023          	sd	s0,0(sp)
    80000938:	00164417          	auipc	s0,0x164
    8000093c:	a6040413          	addi	s0,s0,-1440 # 80164398 <cpu>
    80000940:	00244783          	lbu	a5,2(s0)
    80000944:	00113423          	sd	ra,8(sp)
    80000948:	0017879b          	addiw	a5,a5,1
    8000094c:	0ff7f793          	andi	a5,a5,255
    80000950:	10078513          	addi	a0,a5,256
    80000954:	00f40123          	sb	a5,2(s0)
    80000958:	eb8ff0ef          	jal	ra,80000010 <memory_readb>
    8000095c:	00244783          	lbu	a5,2(s0)
    80000960:	02056513          	ori	a0,a0,32
    80000964:	00a40323          	sb	a0,6(s0)
    80000968:	0027879b          	addiw	a5,a5,2
    8000096c:	0ff7f793          	andi	a5,a5,255
    80000970:	0ff78513          	addi	a0,a5,255
    80000974:	00f40123          	sb	a5,2(s0)
    80000978:	fe8ff0ef          	jal	ra,80000160 <memory_readw>
    8000097c:	00813083          	ld	ra,8(sp)
    80000980:	00a41023          	sh	a0,0(s0)
    80000984:	00013403          	ld	s0,0(sp)
    80000988:	01010113          	addi	sp,sp,16
    8000098c:	00008067          	ret

0000000080000990 <cpu_op_bcs>:
    80000990:	ff010113          	addi	sp,sp,-16
    80000994:	00813023          	sd	s0,0(sp)
    80000998:	00164417          	auipc	s0,0x164
    8000099c:	a0040413          	addi	s0,s0,-1536 # 80164398 <cpu>
    800009a0:	00644503          	lbu	a0,6(s0)
    800009a4:	00000593          	li	a1,0
    800009a8:	00113423          	sd	ra,8(sp)
    800009ac:	7e9020ef          	jal	ra,80003994 <common_bit_set>
    800009b0:	00050863          	beqz	a0,800009c0 <cpu_op_bcs+0x30>
    800009b4:	00164797          	auipc	a5,0x164
    800009b8:	9e07a783          	lw	a5,-1568(a5) # 80164394 <op_address>
    800009bc:	00f41023          	sh	a5,0(s0)
    800009c0:	00813083          	ld	ra,8(sp)
    800009c4:	00013403          	ld	s0,0(sp)
    800009c8:	01010113          	addi	sp,sp,16
    800009cc:	00008067          	ret

00000000800009d0 <cpu_op_beq>:
    800009d0:	ff010113          	addi	sp,sp,-16
    800009d4:	00813023          	sd	s0,0(sp)
    800009d8:	00164417          	auipc	s0,0x164
    800009dc:	9c040413          	addi	s0,s0,-1600 # 80164398 <cpu>
    800009e0:	00644503          	lbu	a0,6(s0)
    800009e4:	00100593          	li	a1,1
    800009e8:	00113423          	sd	ra,8(sp)
    800009ec:	7a9020ef          	jal	ra,80003994 <common_bit_set>
    800009f0:	00050863          	beqz	a0,80000a00 <cpu_op_beq+0x30>
    800009f4:	00164797          	auipc	a5,0x164
    800009f8:	9a07a783          	lw	a5,-1632(a5) # 80164394 <op_address>
    800009fc:	00f41023          	sh	a5,0(s0)
    80000a00:	00813083          	ld	ra,8(sp)
    80000a04:	00013403          	ld	s0,0(sp)
    80000a08:	01010113          	addi	sp,sp,16
    80000a0c:	00008067          	ret

0000000080000a10 <cpu_op_bmi>:
    80000a10:	ff010113          	addi	sp,sp,-16
    80000a14:	00813023          	sd	s0,0(sp)
    80000a18:	00164417          	auipc	s0,0x164
    80000a1c:	98040413          	addi	s0,s0,-1664 # 80164398 <cpu>
    80000a20:	00644503          	lbu	a0,6(s0)
    80000a24:	00700593          	li	a1,7
    80000a28:	00113423          	sd	ra,8(sp)
    80000a2c:	769020ef          	jal	ra,80003994 <common_bit_set>
    80000a30:	00050863          	beqz	a0,80000a40 <cpu_op_bmi+0x30>
    80000a34:	00164797          	auipc	a5,0x164
    80000a38:	9607a783          	lw	a5,-1696(a5) # 80164394 <op_address>
    80000a3c:	00f41023          	sh	a5,0(s0)
    80000a40:	00813083          	ld	ra,8(sp)
    80000a44:	00013403          	ld	s0,0(sp)
    80000a48:	01010113          	addi	sp,sp,16
    80000a4c:	00008067          	ret

0000000080000a50 <cpu_op_bvs>:
    80000a50:	ff010113          	addi	sp,sp,-16
    80000a54:	00813023          	sd	s0,0(sp)
    80000a58:	00164417          	auipc	s0,0x164
    80000a5c:	94040413          	addi	s0,s0,-1728 # 80164398 <cpu>
    80000a60:	00644503          	lbu	a0,6(s0)
    80000a64:	00600593          	li	a1,6
    80000a68:	00113423          	sd	ra,8(sp)
    80000a6c:	729020ef          	jal	ra,80003994 <common_bit_set>
    80000a70:	00050863          	beqz	a0,80000a80 <cpu_op_bvs+0x30>
    80000a74:	00164797          	auipc	a5,0x164
    80000a78:	9207a783          	lw	a5,-1760(a5) # 80164394 <op_address>
    80000a7c:	00f41023          	sh	a5,0(s0)
    80000a80:	00813083          	ld	ra,8(sp)
    80000a84:	00013403          	ld	s0,0(sp)
    80000a88:	01010113          	addi	sp,sp,16
    80000a8c:	00008067          	ret

0000000080000a90 <cpu_op_bne>:
    80000a90:	ff010113          	addi	sp,sp,-16
    80000a94:	00813023          	sd	s0,0(sp)
    80000a98:	00164417          	auipc	s0,0x164
    80000a9c:	90040413          	addi	s0,s0,-1792 # 80164398 <cpu>
    80000aa0:	00644503          	lbu	a0,6(s0)
    80000aa4:	00100593          	li	a1,1
    80000aa8:	00113423          	sd	ra,8(sp)
    80000aac:	6e9020ef          	jal	ra,80003994 <common_bit_set>
    80000ab0:	00051863          	bnez	a0,80000ac0 <cpu_op_bne+0x30>
    80000ab4:	00164797          	auipc	a5,0x164
    80000ab8:	8e07a783          	lw	a5,-1824(a5) # 80164394 <op_address>
    80000abc:	00f41023          	sh	a5,0(s0)
    80000ac0:	00813083          	ld	ra,8(sp)
    80000ac4:	00013403          	ld	s0,0(sp)
    80000ac8:	01010113          	addi	sp,sp,16
    80000acc:	00008067          	ret

0000000080000ad0 <cpu_op_bcc>:
    80000ad0:	ff010113          	addi	sp,sp,-16
    80000ad4:	00813023          	sd	s0,0(sp)
    80000ad8:	00164417          	auipc	s0,0x164
    80000adc:	8c040413          	addi	s0,s0,-1856 # 80164398 <cpu>
    80000ae0:	00644503          	lbu	a0,6(s0)
    80000ae4:	00000593          	li	a1,0
    80000ae8:	00113423          	sd	ra,8(sp)
    80000aec:	6a9020ef          	jal	ra,80003994 <common_bit_set>
    80000af0:	00051863          	bnez	a0,80000b00 <cpu_op_bcc+0x30>
    80000af4:	00164797          	auipc	a5,0x164
    80000af8:	8a07a783          	lw	a5,-1888(a5) # 80164394 <op_address>
    80000afc:	00f41023          	sh	a5,0(s0)
    80000b00:	00813083          	ld	ra,8(sp)
    80000b04:	00013403          	ld	s0,0(sp)
    80000b08:	01010113          	addi	sp,sp,16
    80000b0c:	00008067          	ret

0000000080000b10 <cpu_op_bpl>:
    80000b10:	ff010113          	addi	sp,sp,-16
    80000b14:	00813023          	sd	s0,0(sp)
    80000b18:	00164417          	auipc	s0,0x164
    80000b1c:	88040413          	addi	s0,s0,-1920 # 80164398 <cpu>
    80000b20:	00644503          	lbu	a0,6(s0)
    80000b24:	00700593          	li	a1,7
    80000b28:	00113423          	sd	ra,8(sp)
    80000b2c:	669020ef          	jal	ra,80003994 <common_bit_set>
    80000b30:	00051863          	bnez	a0,80000b40 <cpu_op_bpl+0x30>
    80000b34:	00164797          	auipc	a5,0x164
    80000b38:	8607a783          	lw	a5,-1952(a5) # 80164394 <op_address>
    80000b3c:	00f41023          	sh	a5,0(s0)
    80000b40:	00813083          	ld	ra,8(sp)
    80000b44:	00013403          	ld	s0,0(sp)
    80000b48:	01010113          	addi	sp,sp,16
    80000b4c:	00008067          	ret

0000000080000b50 <cpu_op_bvc>:
    80000b50:	ff010113          	addi	sp,sp,-16
    80000b54:	00813023          	sd	s0,0(sp)
    80000b58:	00164417          	auipc	s0,0x164
    80000b5c:	84040413          	addi	s0,s0,-1984 # 80164398 <cpu>
    80000b60:	00644503          	lbu	a0,6(s0)
    80000b64:	00600593          	li	a1,6
    80000b68:	00113423          	sd	ra,8(sp)
    80000b6c:	629020ef          	jal	ra,80003994 <common_bit_set>
    80000b70:	00051863          	bnez	a0,80000b80 <cpu_op_bvc+0x30>
    80000b74:	00164797          	auipc	a5,0x164
    80000b78:	8207a783          	lw	a5,-2016(a5) # 80164394 <op_address>
    80000b7c:	00f41023          	sh	a5,0(s0)
    80000b80:	00813083          	ld	ra,8(sp)
    80000b84:	00013403          	ld	s0,0(sp)
    80000b88:	01010113          	addi	sp,sp,16
    80000b8c:	00008067          	ret

0000000080000b90 <cpu_op_adc>:
    80000b90:	fe010113          	addi	sp,sp,-32
    80000b94:	00913423          	sd	s1,8(sp)
    80000b98:	01213023          	sd	s2,0(sp)
    80000b9c:	00163497          	auipc	s1,0x163
    80000ba0:	7fc48493          	addi	s1,s1,2044 # 80164398 <cpu>
    80000ba4:	00163917          	auipc	s2,0x163
    80000ba8:	7ec90913          	addi	s2,s2,2028 # 80164390 <op_value>
    80000bac:	00813823          	sd	s0,16(sp)
    80000bb0:	00092783          	lw	a5,0(s2)
    80000bb4:	0034c403          	lbu	s0,3(s1)
    80000bb8:	0064c503          	lbu	a0,6(s1)
    80000bbc:	00000593          	li	a1,0
    80000bc0:	00113c23          	sd	ra,24(sp)
    80000bc4:	00f4043b          	addw	s0,s0,a5
    80000bc8:	5cd020ef          	jal	ra,80003994 <common_bit_set>
    80000bcc:	00a4043b          	addw	s0,s0,a0
    80000bd0:	4084561b          	sraiw	a2,s0,0x8
    80000bd4:	00167613          	andi	a2,a2,1
    80000bd8:	00000593          	li	a1,0
    80000bdc:	00163517          	auipc	a0,0x163
    80000be0:	7c250513          	addi	a0,a0,1986 # 8016439e <cpu+0x6>
    80000be4:	5f9020ef          	jal	ra,800039dc <common_modify_bitb>
    80000be8:	0034c783          	lbu	a5,3(s1)
    80000bec:	00092603          	lw	a2,0(s2)
    80000bf0:	00600593          	li	a1,6
    80000bf4:	0087c733          	xor	a4,a5,s0
    80000bf8:	00c7c633          	xor	a2,a5,a2
    80000bfc:	fff64613          	not	a2,a2
    80000c00:	00e67633          	and	a2,a2,a4
    80000c04:	4076561b          	sraiw	a2,a2,0x7
    80000c08:	00167613          	andi	a2,a2,1
    80000c0c:	00163517          	auipc	a0,0x163
    80000c10:	79250513          	addi	a0,a0,1938 # 8016439e <cpu+0x6>
    80000c14:	5c9020ef          	jal	ra,800039dc <common_modify_bitb>
    80000c18:	0ff47693          	andi	a3,s0,255
    80000c1c:	00005717          	auipc	a4,0x5
    80000c20:	fec70713          	addi	a4,a4,-20 # 80005c08 <cpu_zn_flag_table>
    80000c24:	0064c783          	lbu	a5,6(s1)
    80000c28:	00d70733          	add	a4,a4,a3
    80000c2c:	00074703          	lbu	a4,0(a4)
    80000c30:	008481a3          	sb	s0,3(s1)
    80000c34:	01813083          	ld	ra,24(sp)
    80000c38:	01013403          	ld	s0,16(sp)
    80000c3c:	07d7f793          	andi	a5,a5,125
    80000c40:	00e7e7b3          	or	a5,a5,a4
    80000c44:	00f48323          	sb	a5,6(s1)
    80000c48:	00013903          	ld	s2,0(sp)
    80000c4c:	00813483          	ld	s1,8(sp)
    80000c50:	02010113          	addi	sp,sp,32
    80000c54:	00008067          	ret

0000000080000c58 <cpu_op_sbc>:
    80000c58:	fe010113          	addi	sp,sp,-32
    80000c5c:	00913423          	sd	s1,8(sp)
    80000c60:	01213023          	sd	s2,0(sp)
    80000c64:	00163497          	auipc	s1,0x163
    80000c68:	73448493          	addi	s1,s1,1844 # 80164398 <cpu>
    80000c6c:	00163917          	auipc	s2,0x163
    80000c70:	72490913          	addi	s2,s2,1828 # 80164390 <op_value>
    80000c74:	00813823          	sd	s0,16(sp)
    80000c78:	00092783          	lw	a5,0(s2)
    80000c7c:	0034c403          	lbu	s0,3(s1)
    80000c80:	0064c503          	lbu	a0,6(s1)
    80000c84:	00000593          	li	a1,0
    80000c88:	00113c23          	sd	ra,24(sp)
    80000c8c:	40f4043b          	subw	s0,s0,a5
    80000c90:	505020ef          	jal	ra,80003994 <common_bit_set>
    80000c94:	00154513          	xori	a0,a0,1
    80000c98:	0ff57513          	andi	a0,a0,255
    80000c9c:	40a4043b          	subw	s0,s0,a0
    80000ca0:	4084561b          	sraiw	a2,s0,0x8
    80000ca4:	00164613          	xori	a2,a2,1
    80000ca8:	00167613          	andi	a2,a2,1
    80000cac:	00000593          	li	a1,0
    80000cb0:	00163517          	auipc	a0,0x163
    80000cb4:	6ee50513          	addi	a0,a0,1774 # 8016439e <cpu+0x6>
    80000cb8:	525020ef          	jal	ra,800039dc <common_modify_bitb>
    80000cbc:	0034c783          	lbu	a5,3(s1)
    80000cc0:	00092603          	lw	a2,0(s2)
    80000cc4:	00600593          	li	a1,6
    80000cc8:	0087c733          	xor	a4,a5,s0
    80000ccc:	00c7c633          	xor	a2,a5,a2
    80000cd0:	00e67633          	and	a2,a2,a4
    80000cd4:	4076561b          	sraiw	a2,a2,0x7
    80000cd8:	00167613          	andi	a2,a2,1
    80000cdc:	00163517          	auipc	a0,0x163
    80000ce0:	6c250513          	addi	a0,a0,1730 # 8016439e <cpu+0x6>
    80000ce4:	4f9020ef          	jal	ra,800039dc <common_modify_bitb>
    80000ce8:	0ff47693          	andi	a3,s0,255
    80000cec:	00005717          	auipc	a4,0x5
    80000cf0:	f1c70713          	addi	a4,a4,-228 # 80005c08 <cpu_zn_flag_table>
    80000cf4:	0064c783          	lbu	a5,6(s1)
    80000cf8:	00d70733          	add	a4,a4,a3
    80000cfc:	00074703          	lbu	a4,0(a4)
    80000d00:	008481a3          	sb	s0,3(s1)
    80000d04:	01813083          	ld	ra,24(sp)
    80000d08:	01013403          	ld	s0,16(sp)
    80000d0c:	07d7f793          	andi	a5,a5,125
    80000d10:	00e7e7b3          	or	a5,a5,a4
    80000d14:	00f48323          	sb	a5,6(s1)
    80000d18:	00013903          	ld	s2,0(sp)
    80000d1c:	00813483          	ld	s1,8(sp)
    80000d20:	02010113          	addi	sp,sp,32
    80000d24:	00008067          	ret

0000000080000d28 <cpu_op_ins>:
    80000d28:	00163797          	auipc	a5,0x163
    80000d2c:	66878793          	addi	a5,a5,1640 # 80164390 <op_value>
    80000d30:	0007a583          	lw	a1,0(a5)
    80000d34:	ff010113          	addi	sp,sp,-16
    80000d38:	00113423          	sd	ra,8(sp)
    80000d3c:	0015859b          	addiw	a1,a1,1
    80000d40:	0ff5f713          	andi	a4,a1,255
    80000d44:	00163517          	auipc	a0,0x163
    80000d48:	65055503          	lhu	a0,1616(a0) # 80164394 <op_address>
    80000d4c:	0ff5f593          	andi	a1,a1,255
    80000d50:	00e7a023          	sw	a4,0(a5)
    80000d54:	b08ff0ef          	jal	ra,8000005c <memory_writeb>
    80000d58:	00813083          	ld	ra,8(sp)
    80000d5c:	01010113          	addi	sp,sp,16
    80000d60:	ef9ff06f          	j	80000c58 <cpu_op_sbc>

0000000080000d64 <cpu_op_bit>:
    80000d64:	fe010113          	addi	sp,sp,-32
    80000d68:	00813823          	sd	s0,16(sp)
    80000d6c:	00913423          	sd	s1,8(sp)
    80000d70:	00163417          	auipc	s0,0x163
    80000d74:	62840413          	addi	s0,s0,1576 # 80164398 <cpu>
    80000d78:	00163497          	auipc	s1,0x163
    80000d7c:	61848493          	addi	s1,s1,1560 # 80164390 <op_value>
    80000d80:	0004a783          	lw	a5,0(s1)
    80000d84:	00344603          	lbu	a2,3(s0)
    80000d88:	00100593          	li	a1,1
    80000d8c:	00163517          	auipc	a0,0x163
    80000d90:	61250513          	addi	a0,a0,1554 # 8016439e <cpu+0x6>
    80000d94:	00f67633          	and	a2,a2,a5
    80000d98:	00163613          	seqz	a2,a2
    80000d9c:	00113c23          	sd	ra,24(sp)
    80000da0:	43d020ef          	jal	ra,800039dc <common_modify_bitb>
    80000da4:	00644783          	lbu	a5,6(s0)
    80000da8:	0004c703          	lbu	a4,0(s1)
    80000dac:	01813083          	ld	ra,24(sp)
    80000db0:	03f7f793          	andi	a5,a5,63
    80000db4:	fc077713          	andi	a4,a4,-64
    80000db8:	00e7e7b3          	or	a5,a5,a4
    80000dbc:	00f40323          	sb	a5,6(s0)
    80000dc0:	01013403          	ld	s0,16(sp)
    80000dc4:	00813483          	ld	s1,8(sp)
    80000dc8:	02010113          	addi	sp,sp,32
    80000dcc:	00008067          	ret

0000000080000dd0 <cpu_op_asla>:
    80000dd0:	ff010113          	addi	sp,sp,-16
    80000dd4:	00813023          	sd	s0,0(sp)
    80000dd8:	00163417          	auipc	s0,0x163
    80000ddc:	5c040413          	addi	s0,s0,1472 # 80164398 <cpu>
    80000de0:	00344603          	lbu	a2,3(s0)
    80000de4:	00000593          	li	a1,0
    80000de8:	00163517          	auipc	a0,0x163
    80000dec:	5b650513          	addi	a0,a0,1462 # 8016439e <cpu+0x6>
    80000df0:	00765613          	srli	a2,a2,0x7
    80000df4:	00113423          	sd	ra,8(sp)
    80000df8:	3e5020ef          	jal	ra,800039dc <common_modify_bitb>
    80000dfc:	00344783          	lbu	a5,3(s0)
    80000e00:	00005697          	auipc	a3,0x5
    80000e04:	e0868693          	addi	a3,a3,-504 # 80005c08 <cpu_zn_flag_table>
    80000e08:	00644703          	lbu	a4,6(s0)
    80000e0c:	0017979b          	slliw	a5,a5,0x1
    80000e10:	0ff7f793          	andi	a5,a5,255
    80000e14:	00f686b3          	add	a3,a3,a5
    80000e18:	0006c683          	lbu	a3,0(a3)
    80000e1c:	07d77713          	andi	a4,a4,125
    80000e20:	00f401a3          	sb	a5,3(s0)
    80000e24:	00d767b3          	or	a5,a4,a3
    80000e28:	00813083          	ld	ra,8(sp)
    80000e2c:	00f40323          	sb	a5,6(s0)
    80000e30:	00013403          	ld	s0,0(sp)
    80000e34:	01010113          	addi	sp,sp,16
    80000e38:	00008067          	ret

0000000080000e3c <cpu_op_asl>:
    80000e3c:	ff010113          	addi	sp,sp,-16
    80000e40:	00813023          	sd	s0,0(sp)
    80000e44:	00163417          	auipc	s0,0x163
    80000e48:	54c40413          	addi	s0,s0,1356 # 80164390 <op_value>
    80000e4c:	00042603          	lw	a2,0(s0)
    80000e50:	00000593          	li	a1,0
    80000e54:	00163517          	auipc	a0,0x163
    80000e58:	54a50513          	addi	a0,a0,1354 # 8016439e <cpu+0x6>
    80000e5c:	4076561b          	sraiw	a2,a2,0x7
    80000e60:	00167613          	andi	a2,a2,1
    80000e64:	00113423          	sd	ra,8(sp)
    80000e68:	375020ef          	jal	ra,800039dc <common_modify_bitb>
    80000e6c:	00042583          	lw	a1,0(s0)
    80000e70:	00163697          	auipc	a3,0x163
    80000e74:	52868693          	addi	a3,a3,1320 # 80164398 <cpu>
    80000e78:	00005717          	auipc	a4,0x5
    80000e7c:	d9070713          	addi	a4,a4,-624 # 80005c08 <cpu_zn_flag_table>
    80000e80:	0015959b          	slliw	a1,a1,0x1
    80000e84:	0fe5f613          	andi	a2,a1,254
    80000e88:	0066c783          	lbu	a5,6(a3)
    80000e8c:	00c70733          	add	a4,a4,a2
    80000e90:	00074703          	lbu	a4,0(a4)
    80000e94:	07d7f793          	andi	a5,a5,125
    80000e98:	00c42023          	sw	a2,0(s0)
    80000e9c:	00e7e7b3          	or	a5,a5,a4
    80000ea0:	00f68323          	sb	a5,6(a3)
    80000ea4:	00013403          	ld	s0,0(sp)
    80000ea8:	00813083          	ld	ra,8(sp)
    80000eac:	00163517          	auipc	a0,0x163
    80000eb0:	4e855503          	lhu	a0,1256(a0) # 80164394 <op_address>
    80000eb4:	00060593          	mv	a1,a2
    80000eb8:	01010113          	addi	sp,sp,16
    80000ebc:	9a0ff06f          	j	8000005c <memory_writeb>

0000000080000ec0 <cpu_op_aso>:
    80000ec0:	ff010113          	addi	sp,sp,-16
    80000ec4:	00113423          	sd	ra,8(sp)
    80000ec8:	f75ff0ef          	jal	ra,80000e3c <cpu_op_asl>
    80000ecc:	00163697          	auipc	a3,0x163
    80000ed0:	4cc68693          	addi	a3,a3,1228 # 80164398 <cpu>
    80000ed4:	0036c783          	lbu	a5,3(a3)
    80000ed8:	00163717          	auipc	a4,0x163
    80000edc:	4b874703          	lbu	a4,1208(a4) # 80164390 <op_value>
    80000ee0:	00005617          	auipc	a2,0x5
    80000ee4:	d2860613          	addi	a2,a2,-728 # 80005c08 <cpu_zn_flag_table>
    80000ee8:	00e7e7b3          	or	a5,a5,a4
    80000eec:	0ff7f793          	andi	a5,a5,255
    80000ef0:	0066c703          	lbu	a4,6(a3)
    80000ef4:	00f60633          	add	a2,a2,a5
    80000ef8:	00064603          	lbu	a2,0(a2)
    80000efc:	07d77713          	andi	a4,a4,125
    80000f00:	00f681a3          	sb	a5,3(a3)
    80000f04:	00c767b3          	or	a5,a4,a2
    80000f08:	00f68323          	sb	a5,6(a3)
    80000f0c:	00813083          	ld	ra,8(sp)
    80000f10:	01010113          	addi	sp,sp,16
    80000f14:	00008067          	ret

0000000080000f18 <cpu_op_lsra>:
    80000f18:	fe010113          	addi	sp,sp,-32
    80000f1c:	00913423          	sd	s1,8(sp)
    80000f20:	00163497          	auipc	s1,0x163
    80000f24:	47848493          	addi	s1,s1,1144 # 80164398 <cpu>
    80000f28:	00813823          	sd	s0,16(sp)
    80000f2c:	0034c403          	lbu	s0,3(s1)
    80000f30:	00000593          	li	a1,0
    80000f34:	00163517          	auipc	a0,0x163
    80000f38:	46a50513          	addi	a0,a0,1130 # 8016439e <cpu+0x6>
    80000f3c:	00147613          	andi	a2,s0,1
    80000f40:	00113c23          	sd	ra,24(sp)
    80000f44:	299020ef          	jal	ra,800039dc <common_modify_bitb>
    80000f48:	00145413          	srli	s0,s0,0x1
    80000f4c:	00005717          	auipc	a4,0x5
    80000f50:	cbc70713          	addi	a4,a4,-836 # 80005c08 <cpu_zn_flag_table>
    80000f54:	0064c783          	lbu	a5,6(s1)
    80000f58:	00870733          	add	a4,a4,s0
    80000f5c:	00074703          	lbu	a4,0(a4)
    80000f60:	008481a3          	sb	s0,3(s1)
    80000f64:	01813083          	ld	ra,24(sp)
    80000f68:	01013403          	ld	s0,16(sp)
    80000f6c:	07d7f793          	andi	a5,a5,125
    80000f70:	00e7e7b3          	or	a5,a5,a4
    80000f74:	00f48323          	sb	a5,6(s1)
    80000f78:	00813483          	ld	s1,8(sp)
    80000f7c:	02010113          	addi	sp,sp,32
    80000f80:	00008067          	ret

0000000080000f84 <cpu_op_lsr>:
    80000f84:	ff010113          	addi	sp,sp,-16
    80000f88:	00813023          	sd	s0,0(sp)
    80000f8c:	00163417          	auipc	s0,0x163
    80000f90:	40440413          	addi	s0,s0,1028 # 80164390 <op_value>
    80000f94:	00044603          	lbu	a2,0(s0)
    80000f98:	00000593          	li	a1,0
    80000f9c:	00163517          	auipc	a0,0x163
    80000fa0:	40250513          	addi	a0,a0,1026 # 8016439e <cpu+0x6>
    80000fa4:	00167613          	andi	a2,a2,1
    80000fa8:	00113423          	sd	ra,8(sp)
    80000fac:	231020ef          	jal	ra,800039dc <common_modify_bitb>
    80000fb0:	00042583          	lw	a1,0(s0)
    80000fb4:	00163517          	auipc	a0,0x163
    80000fb8:	3e055503          	lhu	a0,992(a0) # 80164394 <op_address>
    80000fbc:	4015d59b          	sraiw	a1,a1,0x1
    80000fc0:	0ff5f793          	andi	a5,a1,255
    80000fc4:	0ff5f593          	andi	a1,a1,255
    80000fc8:	00f42023          	sw	a5,0(s0)
    80000fcc:	890ff0ef          	jal	ra,8000005c <memory_writeb>
    80000fd0:	00042603          	lw	a2,0(s0)
    80000fd4:	00163697          	auipc	a3,0x163
    80000fd8:	3c468693          	addi	a3,a3,964 # 80164398 <cpu>
    80000fdc:	00005717          	auipc	a4,0x5
    80000fe0:	c2c70713          	addi	a4,a4,-980 # 80005c08 <cpu_zn_flag_table>
    80000fe4:	0066c783          	lbu	a5,6(a3)
    80000fe8:	00c70733          	add	a4,a4,a2
    80000fec:	00074703          	lbu	a4,0(a4)
    80000ff0:	07d7f793          	andi	a5,a5,125
    80000ff4:	00e7e7b3          	or	a5,a5,a4
    80000ff8:	00f68323          	sb	a5,6(a3)
    80000ffc:	00813083          	ld	ra,8(sp)
    80001000:	00013403          	ld	s0,0(sp)
    80001004:	01010113          	addi	sp,sp,16
    80001008:	00008067          	ret

000000008000100c <cpu_op_lse>:
    8000100c:	ff010113          	addi	sp,sp,-16
    80001010:	00113423          	sd	ra,8(sp)
    80001014:	f71ff0ef          	jal	ra,80000f84 <cpu_op_lsr>
    80001018:	00163697          	auipc	a3,0x163
    8000101c:	38068693          	addi	a3,a3,896 # 80164398 <cpu>
    80001020:	0036c783          	lbu	a5,3(a3)
    80001024:	00163717          	auipc	a4,0x163
    80001028:	36c74703          	lbu	a4,876(a4) # 80164390 <op_value>
    8000102c:	00005617          	auipc	a2,0x5
    80001030:	bdc60613          	addi	a2,a2,-1060 # 80005c08 <cpu_zn_flag_table>
    80001034:	00e7c7b3          	xor	a5,a5,a4
    80001038:	0ff7f793          	andi	a5,a5,255
    8000103c:	0066c703          	lbu	a4,6(a3)
    80001040:	00f60633          	add	a2,a2,a5
    80001044:	00064603          	lbu	a2,0(a2)
    80001048:	07d77713          	andi	a4,a4,125
    8000104c:	00f681a3          	sb	a5,3(a3)
    80001050:	00c767b3          	or	a5,a4,a2
    80001054:	00f68323          	sb	a5,6(a3)
    80001058:	00813083          	ld	ra,8(sp)
    8000105c:	01010113          	addi	sp,sp,16
    80001060:	00008067          	ret

0000000080001064 <cpu_op_rola>:
    80001064:	fe010113          	addi	sp,sp,-32
    80001068:	00913423          	sd	s1,8(sp)
    8000106c:	00163497          	auipc	s1,0x163
    80001070:	32c48493          	addi	s1,s1,812 # 80164398 <cpu>
    80001074:	00813823          	sd	s0,16(sp)
    80001078:	0064c503          	lbu	a0,6(s1)
    8000107c:	0034c403          	lbu	s0,3(s1)
    80001080:	00000593          	li	a1,0
    80001084:	00113c23          	sd	ra,24(sp)
    80001088:	0014141b          	slliw	s0,s0,0x1
    8000108c:	109020ef          	jal	ra,80003994 <common_bit_set>
    80001090:	00a46433          	or	s0,s0,a0
    80001094:	0004041b          	sext.w	s0,s0
    80001098:	0ff00613          	li	a2,255
    8000109c:	00862633          	slt	a2,a2,s0
    800010a0:	00000593          	li	a1,0
    800010a4:	00163517          	auipc	a0,0x163
    800010a8:	2fa50513          	addi	a0,a0,762 # 8016439e <cpu+0x6>
    800010ac:	131020ef          	jal	ra,800039dc <common_modify_bitb>
    800010b0:	0ff47693          	andi	a3,s0,255
    800010b4:	00005717          	auipc	a4,0x5
    800010b8:	b5470713          	addi	a4,a4,-1196 # 80005c08 <cpu_zn_flag_table>
    800010bc:	0064c783          	lbu	a5,6(s1)
    800010c0:	00d70733          	add	a4,a4,a3
    800010c4:	00074703          	lbu	a4,0(a4)
    800010c8:	008481a3          	sb	s0,3(s1)
    800010cc:	01813083          	ld	ra,24(sp)
    800010d0:	01013403          	ld	s0,16(sp)
    800010d4:	07d7f793          	andi	a5,a5,125
    800010d8:	00e7e7b3          	or	a5,a5,a4
    800010dc:	00f48323          	sb	a5,6(s1)
    800010e0:	00813483          	ld	s1,8(sp)
    800010e4:	02010113          	addi	sp,sp,32
    800010e8:	00008067          	ret

00000000800010ec <cpu_op_rol>:
    800010ec:	fe010113          	addi	sp,sp,-32
    800010f0:	00813823          	sd	s0,16(sp)
    800010f4:	00163417          	auipc	s0,0x163
    800010f8:	29c40413          	addi	s0,s0,668 # 80164390 <op_value>
    800010fc:	00913423          	sd	s1,8(sp)
    80001100:	00042783          	lw	a5,0(s0)
    80001104:	00163497          	auipc	s1,0x163
    80001108:	29448493          	addi	s1,s1,660 # 80164398 <cpu>
    8000110c:	0064c503          	lbu	a0,6(s1)
    80001110:	0017979b          	slliw	a5,a5,0x1
    80001114:	00000593          	li	a1,0
    80001118:	00113c23          	sd	ra,24(sp)
    8000111c:	00f42023          	sw	a5,0(s0)
    80001120:	075020ef          	jal	ra,80003994 <common_bit_set>
    80001124:	00042783          	lw	a5,0(s0)
    80001128:	0ff00613          	li	a2,255
    8000112c:	00000593          	li	a1,0
    80001130:	00f567b3          	or	a5,a0,a5
    80001134:	0007879b          	sext.w	a5,a5
    80001138:	00f62633          	slt	a2,a2,a5
    8000113c:	00163517          	auipc	a0,0x163
    80001140:	26250513          	addi	a0,a0,610 # 8016439e <cpu+0x6>
    80001144:	00f42023          	sw	a5,0(s0)
    80001148:	095020ef          	jal	ra,800039dc <common_modify_bitb>
    8000114c:	00042583          	lw	a1,0(s0)
    80001150:	00163517          	auipc	a0,0x163
    80001154:	24455503          	lhu	a0,580(a0) # 80164394 <op_address>
    80001158:	0ff5f793          	andi	a5,a1,255
    8000115c:	0ff5f593          	andi	a1,a1,255
    80001160:	00f42023          	sw	a5,0(s0)
    80001164:	ef9fe0ef          	jal	ra,8000005c <memory_writeb>
    80001168:	00042683          	lw	a3,0(s0)
    8000116c:	00005717          	auipc	a4,0x5
    80001170:	a9c70713          	addi	a4,a4,-1380 # 80005c08 <cpu_zn_flag_table>
    80001174:	0064c783          	lbu	a5,6(s1)
    80001178:	00d70733          	add	a4,a4,a3
    8000117c:	00074703          	lbu	a4,0(a4)
    80001180:	01813083          	ld	ra,24(sp)
    80001184:	01013403          	ld	s0,16(sp)
    80001188:	07d7f793          	andi	a5,a5,125
    8000118c:	00e7e7b3          	or	a5,a5,a4
    80001190:	00f48323          	sb	a5,6(s1)
    80001194:	00813483          	ld	s1,8(sp)
    80001198:	02010113          	addi	sp,sp,32
    8000119c:	00008067          	ret

00000000800011a0 <cpu_op_rla>:
    800011a0:	ff010113          	addi	sp,sp,-16
    800011a4:	00113423          	sd	ra,8(sp)
    800011a8:	f45ff0ef          	jal	ra,800010ec <cpu_op_rol>
    800011ac:	00163717          	auipc	a4,0x163
    800011b0:	1ec70713          	addi	a4,a4,492 # 80164398 <cpu>
    800011b4:	00374683          	lbu	a3,3(a4)
    800011b8:	00163797          	auipc	a5,0x163
    800011bc:	1d87c783          	lbu	a5,472(a5) # 80164390 <op_value>
    800011c0:	00005617          	auipc	a2,0x5
    800011c4:	a4860613          	addi	a2,a2,-1464 # 80005c08 <cpu_zn_flag_table>
    800011c8:	00f6f6b3          	and	a3,a3,a5
    800011cc:	00d60633          	add	a2,a2,a3
    800011d0:	00674783          	lbu	a5,6(a4)
    800011d4:	00064603          	lbu	a2,0(a2)
    800011d8:	00d701a3          	sb	a3,3(a4)
    800011dc:	07d7f793          	andi	a5,a5,125
    800011e0:	00c7e7b3          	or	a5,a5,a2
    800011e4:	00f70323          	sb	a5,6(a4)
    800011e8:	00813083          	ld	ra,8(sp)
    800011ec:	01010113          	addi	sp,sp,16
    800011f0:	00008067          	ret

00000000800011f4 <cpu_op_rora>:
    800011f4:	fe010113          	addi	sp,sp,-32
    800011f8:	00913423          	sd	s1,8(sp)
    800011fc:	00163497          	auipc	s1,0x163
    80001200:	19c48493          	addi	s1,s1,412 # 80164398 <cpu>
    80001204:	0064c503          	lbu	a0,6(s1)
    80001208:	00000593          	li	a1,0
    8000120c:	00113c23          	sd	ra,24(sp)
    80001210:	00813823          	sd	s0,16(sp)
    80001214:	780020ef          	jal	ra,80003994 <common_bit_set>
    80001218:	0034c603          	lbu	a2,3(s1)
    8000121c:	00050413          	mv	s0,a0
    80001220:	00000593          	li	a1,0
    80001224:	00163517          	auipc	a0,0x163
    80001228:	17a50513          	addi	a0,a0,378 # 8016439e <cpu+0x6>
    8000122c:	00167613          	andi	a2,a2,1
    80001230:	7ac020ef          	jal	ra,800039dc <common_modify_bitb>
    80001234:	0034c783          	lbu	a5,3(s1)
    80001238:	00741713          	slli	a4,s0,0x7
    8000123c:	00100593          	li	a1,1
    80001240:	0017d793          	srli	a5,a5,0x1
    80001244:	00e7e7b3          	or	a5,a5,a4
    80001248:	0ff7f793          	andi	a5,a5,255
    8000124c:	00163517          	auipc	a0,0x163
    80001250:	15250513          	addi	a0,a0,338 # 8016439e <cpu+0x6>
    80001254:	0017b613          	seqz	a2,a5
    80001258:	00f481a3          	sb	a5,3(s1)
    8000125c:	780020ef          	jal	ra,800039dc <common_modify_bitb>
    80001260:	00040613          	mv	a2,s0
    80001264:	01013403          	ld	s0,16(sp)
    80001268:	01813083          	ld	ra,24(sp)
    8000126c:	00813483          	ld	s1,8(sp)
    80001270:	00700593          	li	a1,7
    80001274:	00163517          	auipc	a0,0x163
    80001278:	12a50513          	addi	a0,a0,298 # 8016439e <cpu+0x6>
    8000127c:	02010113          	addi	sp,sp,32
    80001280:	75c0206f          	j	800039dc <common_modify_bitb>

0000000080001284 <cpu_op_ror>:
    80001284:	fe010113          	addi	sp,sp,-32
    80001288:	00000593          	li	a1,0
    8000128c:	00163517          	auipc	a0,0x163
    80001290:	11254503          	lbu	a0,274(a0) # 8016439e <cpu+0x6>
    80001294:	00113c23          	sd	ra,24(sp)
    80001298:	00813823          	sd	s0,16(sp)
    8000129c:	00913423          	sd	s1,8(sp)
    800012a0:	00163417          	auipc	s0,0x163
    800012a4:	0f040413          	addi	s0,s0,240 # 80164390 <op_value>
    800012a8:	6ec020ef          	jal	ra,80003994 <common_bit_set>
    800012ac:	00044603          	lbu	a2,0(s0)
    800012b0:	00050493          	mv	s1,a0
    800012b4:	00000593          	li	a1,0
    800012b8:	00163517          	auipc	a0,0x163
    800012bc:	0e650513          	addi	a0,a0,230 # 8016439e <cpu+0x6>
    800012c0:	00167613          	andi	a2,a2,1
    800012c4:	718020ef          	jal	ra,800039dc <common_modify_bitb>
    800012c8:	00042783          	lw	a5,0(s0)
    800012cc:	0074971b          	slliw	a4,s1,0x7
    800012d0:	00100593          	li	a1,1
    800012d4:	4017d79b          	sraiw	a5,a5,0x1
    800012d8:	00e7e7b3          	or	a5,a5,a4
    800012dc:	0ff7f793          	andi	a5,a5,255
    800012e0:	0017b613          	seqz	a2,a5
    800012e4:	00163517          	auipc	a0,0x163
    800012e8:	0ba50513          	addi	a0,a0,186 # 8016439e <cpu+0x6>
    800012ec:	00f42023          	sw	a5,0(s0)
    800012f0:	6ec020ef          	jal	ra,800039dc <common_modify_bitb>
    800012f4:	00048613          	mv	a2,s1
    800012f8:	00700593          	li	a1,7
    800012fc:	00163517          	auipc	a0,0x163
    80001300:	0a250513          	addi	a0,a0,162 # 8016439e <cpu+0x6>
    80001304:	6d8020ef          	jal	ra,800039dc <common_modify_bitb>
    80001308:	00044583          	lbu	a1,0(s0)
    8000130c:	01013403          	ld	s0,16(sp)
    80001310:	01813083          	ld	ra,24(sp)
    80001314:	00813483          	ld	s1,8(sp)
    80001318:	00163517          	auipc	a0,0x163
    8000131c:	07c55503          	lhu	a0,124(a0) # 80164394 <op_address>
    80001320:	02010113          	addi	sp,sp,32
    80001324:	d39fe06f          	j	8000005c <memory_writeb>

0000000080001328 <cpu_op_rra>:
    80001328:	ff010113          	addi	sp,sp,-16
    8000132c:	00113423          	sd	ra,8(sp)
    80001330:	f55ff0ef          	jal	ra,80001284 <cpu_op_ror>
    80001334:	00813083          	ld	ra,8(sp)
    80001338:	01010113          	addi	sp,sp,16
    8000133c:	855ff06f          	j	80000b90 <cpu_op_adc>

0000000080001340 <cpu_op_cmp>:
    80001340:	fe010113          	addi	sp,sp,-32
    80001344:	00813823          	sd	s0,16(sp)
    80001348:	00163617          	auipc	a2,0x163
    8000134c:	04862603          	lw	a2,72(a2) # 80164390 <op_value>
    80001350:	00163417          	auipc	s0,0x163
    80001354:	04b44403          	lbu	s0,75(s0) # 8016439b <cpu+0x3>
    80001358:	00913423          	sd	s1,8(sp)
    8000135c:	40c404bb          	subw	s1,s0,a2
    80001360:	fff4c613          	not	a2,s1
    80001364:	01f6561b          	srliw	a2,a2,0x1f
    80001368:	00000593          	li	a1,0
    8000136c:	00163517          	auipc	a0,0x163
    80001370:	03250513          	addi	a0,a0,50 # 8016439e <cpu+0x6>
    80001374:	00113c23          	sd	ra,24(sp)
    80001378:	664020ef          	jal	ra,800039dc <common_modify_bitb>
    8000137c:	0014b613          	seqz	a2,s1
    80001380:	00100593          	li	a1,1
    80001384:	00163517          	auipc	a0,0x163
    80001388:	01a50513          	addi	a0,a0,26 # 8016439e <cpu+0x6>
    8000138c:	650020ef          	jal	ra,800039dc <common_modify_bitb>
    80001390:	01013403          	ld	s0,16(sp)
    80001394:	01813083          	ld	ra,24(sp)
    80001398:	4074d61b          	sraiw	a2,s1,0x7
    8000139c:	00813483          	ld	s1,8(sp)
    800013a0:	00167613          	andi	a2,a2,1
    800013a4:	00700593          	li	a1,7
    800013a8:	00163517          	auipc	a0,0x163
    800013ac:	ff650513          	addi	a0,a0,-10 # 8016439e <cpu+0x6>
    800013b0:	02010113          	addi	sp,sp,32
    800013b4:	6280206f          	j	800039dc <common_modify_bitb>

00000000800013b8 <cpu_op_dcm>:
    800013b8:	00163797          	auipc	a5,0x163
    800013bc:	fd878793          	addi	a5,a5,-40 # 80164390 <op_value>
    800013c0:	0007a583          	lw	a1,0(a5)
    800013c4:	ff010113          	addi	sp,sp,-16
    800013c8:	00113423          	sd	ra,8(sp)
    800013cc:	fff5859b          	addiw	a1,a1,-1
    800013d0:	0ff5f713          	andi	a4,a1,255
    800013d4:	00163517          	auipc	a0,0x163
    800013d8:	fc055503          	lhu	a0,-64(a0) # 80164394 <op_address>
    800013dc:	0ff5f593          	andi	a1,a1,255
    800013e0:	00e7a023          	sw	a4,0(a5)
    800013e4:	c79fe0ef          	jal	ra,8000005c <memory_writeb>
    800013e8:	00813083          	ld	ra,8(sp)
    800013ec:	01010113          	addi	sp,sp,16
    800013f0:	f51ff06f          	j	80001340 <cpu_op_cmp>

00000000800013f4 <cpu_op_cpx>:
    800013f4:	fe010113          	addi	sp,sp,-32
    800013f8:	00813823          	sd	s0,16(sp)
    800013fc:	00163617          	auipc	a2,0x163
    80001400:	f9462603          	lw	a2,-108(a2) # 80164390 <op_value>
    80001404:	00163417          	auipc	s0,0x163
    80001408:	f9844403          	lbu	s0,-104(s0) # 8016439c <cpu+0x4>
    8000140c:	00913423          	sd	s1,8(sp)
    80001410:	40c404bb          	subw	s1,s0,a2
    80001414:	fff4c613          	not	a2,s1
    80001418:	01f6561b          	srliw	a2,a2,0x1f
    8000141c:	00000593          	li	a1,0
    80001420:	00163517          	auipc	a0,0x163
    80001424:	f7e50513          	addi	a0,a0,-130 # 8016439e <cpu+0x6>
    80001428:	00113c23          	sd	ra,24(sp)
    8000142c:	5b0020ef          	jal	ra,800039dc <common_modify_bitb>
    80001430:	0014b613          	seqz	a2,s1
    80001434:	00100593          	li	a1,1
    80001438:	00163517          	auipc	a0,0x163
    8000143c:	f6650513          	addi	a0,a0,-154 # 8016439e <cpu+0x6>
    80001440:	59c020ef          	jal	ra,800039dc <common_modify_bitb>
    80001444:	01013403          	ld	s0,16(sp)
    80001448:	01813083          	ld	ra,24(sp)
    8000144c:	4074d61b          	sraiw	a2,s1,0x7
    80001450:	00813483          	ld	s1,8(sp)
    80001454:	00167613          	andi	a2,a2,1
    80001458:	00700593          	li	a1,7
    8000145c:	00163517          	auipc	a0,0x163
    80001460:	f4250513          	addi	a0,a0,-190 # 8016439e <cpu+0x6>
    80001464:	02010113          	addi	sp,sp,32
    80001468:	5740206f          	j	800039dc <common_modify_bitb>

000000008000146c <cpu_op_cpy>:
    8000146c:	fe010113          	addi	sp,sp,-32
    80001470:	00813823          	sd	s0,16(sp)
    80001474:	00163617          	auipc	a2,0x163
    80001478:	f1c62603          	lw	a2,-228(a2) # 80164390 <op_value>
    8000147c:	00163417          	auipc	s0,0x163
    80001480:	f2144403          	lbu	s0,-223(s0) # 8016439d <cpu+0x5>
    80001484:	00913423          	sd	s1,8(sp)
    80001488:	40c404bb          	subw	s1,s0,a2
    8000148c:	fff4c613          	not	a2,s1
    80001490:	01f6561b          	srliw	a2,a2,0x1f
    80001494:	00000593          	li	a1,0
    80001498:	00163517          	auipc	a0,0x163
    8000149c:	f0650513          	addi	a0,a0,-250 # 8016439e <cpu+0x6>
    800014a0:	00113c23          	sd	ra,24(sp)
    800014a4:	538020ef          	jal	ra,800039dc <common_modify_bitb>
    800014a8:	0014b613          	seqz	a2,s1
    800014ac:	00100593          	li	a1,1
    800014b0:	00163517          	auipc	a0,0x163
    800014b4:	eee50513          	addi	a0,a0,-274 # 8016439e <cpu+0x6>
    800014b8:	524020ef          	jal	ra,800039dc <common_modify_bitb>
    800014bc:	01013403          	ld	s0,16(sp)
    800014c0:	01813083          	ld	ra,24(sp)
    800014c4:	4074d61b          	sraiw	a2,s1,0x7
    800014c8:	00813483          	ld	s1,8(sp)
    800014cc:	00167613          	andi	a2,a2,1
    800014d0:	00700593          	li	a1,7
    800014d4:	00163517          	auipc	a0,0x163
    800014d8:	eca50513          	addi	a0,a0,-310 # 8016439e <cpu+0x6>
    800014dc:	02010113          	addi	sp,sp,32
    800014e0:	4fc0206f          	j	800039dc <common_modify_bitb>

00000000800014e4 <cpu_op_clc>:
    800014e4:	00000593          	li	a1,0
    800014e8:	00163517          	auipc	a0,0x163
    800014ec:	eb650513          	addi	a0,a0,-330 # 8016439e <cpu+0x6>
    800014f0:	4d00206f          	j	800039c0 <common_unset_bitb>

00000000800014f4 <cpu_op_cld>:
    800014f4:	00300593          	li	a1,3
    800014f8:	00163517          	auipc	a0,0x163
    800014fc:	ea650513          	addi	a0,a0,-346 # 8016439e <cpu+0x6>
    80001500:	4c00206f          	j	800039c0 <common_unset_bitb>

0000000080001504 <cpu_op_cli>:
    80001504:	00200593          	li	a1,2
    80001508:	00163517          	auipc	a0,0x163
    8000150c:	e9650513          	addi	a0,a0,-362 # 8016439e <cpu+0x6>
    80001510:	4b00206f          	j	800039c0 <common_unset_bitb>

0000000080001514 <cpu_op_clv>:
    80001514:	00600593          	li	a1,6
    80001518:	00163517          	auipc	a0,0x163
    8000151c:	e8650513          	addi	a0,a0,-378 # 8016439e <cpu+0x6>
    80001520:	4a00206f          	j	800039c0 <common_unset_bitb>

0000000080001524 <cpu_op_sec>:
    80001524:	00000593          	li	a1,0
    80001528:	00163517          	auipc	a0,0x163
    8000152c:	e7650513          	addi	a0,a0,-394 # 8016439e <cpu+0x6>
    80001530:	4780206f          	j	800039a8 <common_set_bitb>

0000000080001534 <cpu_op_sed>:
    80001534:	00300593          	li	a1,3
    80001538:	00163517          	auipc	a0,0x163
    8000153c:	e6650513          	addi	a0,a0,-410 # 8016439e <cpu+0x6>
    80001540:	4680206f          	j	800039a8 <common_set_bitb>

0000000080001544 <cpu_op_sei>:
    80001544:	00200593          	li	a1,2
    80001548:	00163517          	auipc	a0,0x163
    8000154c:	e5650513          	addi	a0,a0,-426 # 8016439e <cpu+0x6>
    80001550:	4580206f          	j	800039a8 <common_set_bitb>

0000000080001554 <cpu_op_nop>:
    80001554:	00008067          	ret

0000000080001558 <cpu_ram_read>:
    80001558:	7ff57793          	andi	a5,a0,2047
    8000155c:	00163517          	auipc	a0,0x163
    80001560:	e4450513          	addi	a0,a0,-444 # 801643a0 <CPU_RAM>
    80001564:	00f50533          	add	a0,a0,a5
    80001568:	00054503          	lbu	a0,0(a0)
    8000156c:	00008067          	ret

0000000080001570 <cpu_ram_write>:
    80001570:	7ff57793          	andi	a5,a0,2047
    80001574:	00163517          	auipc	a0,0x163
    80001578:	e2c50513          	addi	a0,a0,-468 # 801643a0 <CPU_RAM>
    8000157c:	00f50533          	add	a0,a0,a5
    80001580:	00b50023          	sb	a1,0(a0)
    80001584:	00008067          	ret

0000000080001588 <cpu_init>:
    80001588:	f7010113          	addi	sp,sp,-144
    8000158c:	00500393          	li	t2,5
    80001590:	07213c23          	sd	s2,120(sp)
    80001594:	00300813          	li	a6,3
    80001598:	02039913          	slli	s2,t2,0x20
    8000159c:	05713823          	sd	s7,80(sp)
    800015a0:	02181893          	slli	a7,a6,0x21
    800015a4:	00290b93          	addi	s7,s2,2
    800015a8:	00010697          	auipc	a3,0x10
    800015ac:	cf868693          	addi	a3,a3,-776 # 800112a0 <cpu_op_cycles>
    800015b0:	08813423          	sd	s0,136(sp)
    800015b4:	08913023          	sd	s1,128(sp)
    800015b8:	07313823          	sd	s3,112(sp)
    800015bc:	07413423          	sd	s4,104(sp)
    800015c0:	07513023          	sd	s5,96(sp)
    800015c4:	05613c23          	sd	s6,88(sp)
    800015c8:	05813423          	sd	s8,72(sp)
    800015cc:	05913023          	sd	s9,64(sp)
    800015d0:	03a13c23          	sd	s10,56(sp)
    800015d4:	03b13823          	sd	s11,48(sp)
    800015d8:	00300a13          	li	s4,3
    800015dc:	01713423          	sd	s7,8(sp)
    800015e0:	00788d13          	addi	s10,a7,7
    800015e4:	00100b93          	li	s7,1
    800015e8:	00010717          	auipc	a4,0x10
    800015ec:	0b870713          	addi	a4,a4,184 # 800116a0 <cpu_op_handler>
    800015f0:	000b8913          	mv	s2,s7
    800015f4:	022b9d93          	slli	s11,s7,0x22
    800015f8:	01a6b023          	sd	s10,0(a3)
    800015fc:	fffffb97          	auipc	s7,0xfffff
    80001600:	208b8b93          	addi	s7,s7,520 # 80000804 <cpu_op_brk>
    80001604:	020a1d13          	slli	s10,s4,0x20
    80001608:	01773023          	sd	s7,0(a4)
    8000160c:	003d0b93          	addi	s7,s10,3
    80001610:	00500d13          	li	s10,5
    80001614:	01a6ac23          	sw	s10,24(a3)
    80001618:	fffffd17          	auipc	s10,0xfffff
    8000161c:	150d0d13          	addi	s10,s10,336 # 80000768 <cpu_op_php>
    80001620:	05a73023          	sd	s10,64(a4)
    80001624:	02191d13          	slli	s10,s2,0x21
    80001628:	0000f797          	auipc	a5,0xf
    8000162c:	47878793          	addi	a5,a5,1144 # 80010aa0 <cpu_op_address_mode>
    80001630:	00002617          	auipc	a2,0x2
    80001634:	3e060613          	addi	a2,a2,992 # 80003a10 <cpu_address_implied>
    80001638:	00002597          	auipc	a1,0x2
    8000163c:	41c58593          	addi	a1,a1,1052 # 80003a54 <cpu_address_zero_page>
    80001640:	00002297          	auipc	t0,0x2
    80001644:	7cc28293          	addi	t0,t0,1996 # 80003e0c <cpu_address_indirect_x>
    80001648:	00002497          	auipc	s1,0x2
    8000164c:	3cc48493          	addi	s1,s1,972 # 80003a14 <cpu_address_immediate>
    80001650:	fffff417          	auipc	s0,0xfffff
    80001654:	c2840413          	addi	s0,s0,-984 # 80000278 <cpu_op_ora>
    80001658:	00200993          	li	s3,2
    8000165c:	fffffc97          	auipc	s9,0xfffff
    80001660:	7e0c8c93          	addi	s9,s9,2016 # 80000e3c <cpu_op_asl>
    80001664:	002d8d93          	addi	s11,s11,2
    80001668:	003d0d13          	addi	s10,s10,3
    8000166c:	01b13823          	sd	s11,16(sp)
    80001670:	01713c23          	sd	s7,24(sp)
    80001674:	0057b423          	sd	t0,8(a5)
    80001678:	0497b423          	sd	s1,72(a5)
    8000167c:	00c7b023          	sd	a2,0(a5)
    80001680:	00873423          	sd	s0,8(a4)
    80001684:	0146aa23          	sw	s4,20(a3)
    80001688:	02873423          	sd	s0,40(a4)
    8000168c:	02b7b423          	sd	a1,40(a5)
    80001690:	03973823          	sd	s9,48(a4)
    80001694:	02b7b823          	sd	a1,48(a5)
    80001698:	04c7b023          	sd	a2,64(a5)
    8000169c:	04873423          	sd	s0,72(a4)
    800016a0:	03a6b023          	sd	s10,32(a3)
    800016a4:	0336a423          	sw	s3,40(a3)
    800016a8:	fffffd17          	auipc	s10,0xfffff
    800016ac:	728d0d13          	addi	s10,s10,1832 # 80000dd0 <cpu_op_asla>
    800016b0:	05a73823          	sd	s10,80(a4)
    800016b4:	00813b83          	ld	s7,8(sp)
    800016b8:	07973823          	sd	s9,112(a4)
    800016bc:	0b973823          	sd	s9,176(a4)
    800016c0:	0576b023          	sd	s7,64(a3)
    800016c4:	00000b97          	auipc	s7,0x0
    800016c8:	e20b8b93          	addi	s7,s7,-480 # 800014e4 <cpu_op_clc>
    800016cc:	0d773023          	sd	s7,192(a4)
    800016d0:	01013b83          	ld	s7,16(sp)
    800016d4:	0f973823          	sd	s9,240(a4)
    800016d8:	00600c93          	li	s9,6
    800016dc:	00002517          	auipc	a0,0x2
    800016e0:	4a450513          	addi	a0,a0,1188 # 80003b80 <cpu_address_absolute>
    800016e4:	00002817          	auipc	a6,0x2
    800016e8:	3cc80813          	addi	a6,a6,972 # 80003ab0 <cpu_address_zero_page_x>
    800016ec:	00002897          	auipc	a7,0x2
    800016f0:	4e088893          	addi	a7,a7,1248 # 80003bcc <cpu_address_absolute_x>
    800016f4:	00600e13          	li	t3,6
    800016f8:	00002e97          	auipc	t4,0x2
    800016fc:	568e8e93          	addi	t4,t4,1384 # 80003c60 <cpu_address_absolute_y>
    80001700:	00002f97          	auipc	t6,0x2
    80001704:	7a4f8f93          	addi	t6,t6,1956 # 80003ea4 <cpu_address_indirect_y>
    80001708:	00700f13          	li	t5,7
    8000170c:	00400b13          	li	s6,4
    80001710:	00002a97          	auipc	s5,0x2
    80001714:	5e8a8a93          	addi	s5,s5,1512 # 80003cf8 <cpu_address_relative>
    80001718:	06873423          	sd	s0,104(a4)
    8000171c:	fffffd17          	auipc	s10,0xfffff
    80001720:	3f4d0d13          	addi	s10,s10,1012 # 80000b10 <cpu_op_bpl>
    80001724:	08873423          	sd	s0,136(a4)
    80001728:	0a873423          	sd	s0,168(a4)
    8000172c:	0776b023          	sd	s7,96(a3)
    80001730:	0c873423          	sd	s0,200(a4)
    80001734:	000c8b93          	mv	s7,s9
    80001738:	0e873423          	sd	s0,232(a4)
    8000173c:	020c9c93          	slli	s9,s9,0x20
    80001740:	fffff417          	auipc	s0,0xfffff
    80001744:	06c40413          	addi	s0,s0,108 # 800007ac <cpu_op_jsr>
    80001748:	06a7b423          	sd	a0,104(a5)
    8000174c:	06a7b823          	sd	a0,112(a5)
    80001750:	0957b023          	sd	s5,128(a5)
    80001754:	017c8cb3          	add	s9,s9,s7
    80001758:	04c7b823          	sd	a2,80(a5)
    8000175c:	0366aa23          	sw	s6,52(a3)
    80001760:	03c6ac23          	sw	t3,56(a3)
    80001764:	09a73023          	sd	s10,128(a4)
    80001768:	09f7b423          	sd	t6,136(a5)
    8000176c:	0566aa23          	sw	s6,84(a3)
    80001770:	0b07b423          	sd	a6,168(a5)
    80001774:	05c6ac23          	sw	t3,88(a3)
    80001778:	0b07b823          	sd	a6,176(a5)
    8000177c:	0cc7b023          	sd	a2,192(a5)
    80001780:	0dd7b423          	sd	t4,200(a5)
    80001784:	0766aa23          	sw	s6,116(a3)
    80001788:	0f17b423          	sd	a7,232(a5)
    8000178c:	0f17b823          	sd	a7,240(a5)
    80001790:	10873023          	sd	s0,256(a4)
    80001794:	07e6ac23          	sw	t5,120(a3)
    80001798:	10a7b023          	sd	a0,256(a5)
    8000179c:	0996b023          	sd	s9,128(a3)
    800017a0:	fffffc97          	auipc	s9,0xfffff
    800017a4:	5c4c8c93          	addi	s9,s9,1476 # 80000d64 <cpu_op_bit>
    800017a8:	13973023          	sd	s9,288(a4)
    800017ac:	01813c83          	ld	s9,24(sp)
    800017b0:	fffff417          	auipc	s0,0xfffff
    800017b4:	13840413          	addi	s0,s0,312 # 800008e8 <cpu_op_plp>
    800017b8:	14873023          	sd	s0,320(a4)
    800017bc:	0996b823          	sd	s9,144(a3)
    800017c0:	00000c97          	auipc	s9,0x0
    800017c4:	8a4c8c93          	addi	s9,s9,-1884 # 80001064 <cpu_op_rola>
    800017c8:	15973823          	sd	s9,336(a4)
    800017cc:	fffffc97          	auipc	s9,0xfffff
    800017d0:	598c8c93          	addi	s9,s9,1432 # 80000d64 <cpu_op_bit>
    800017d4:	17973023          	sd	s9,352(a4)
    800017d8:	02191c93          	slli	s9,s2,0x21
    800017dc:	004c8c93          	addi	s9,s9,4
    800017e0:	0b96b823          	sd	s9,176(a3)
    800017e4:	fffffc97          	auipc	s9,0xfffff
    800017e8:	22cc8c93          	addi	s9,s9,556 # 80000a10 <cpu_op_bmi>
    800017ec:	19973023          	sd	s9,384(a4)
    800017f0:	00813c83          	ld	s9,8(sp)
    800017f4:	02191413          	slli	s0,s2,0x21
    800017f8:	fffffc17          	auipc	s8,0xfffff
    800017fc:	9fcc0c13          	addi	s8,s8,-1540 # 800001f4 <cpu_op_and>
    80001800:	00600d13          	li	s10,6
    80001804:	00000d97          	auipc	s11,0x0
    80001808:	8e8d8d93          	addi	s11,s11,-1816 # 800010ec <cpu_op_rol>
    8000180c:	00440413          	addi	s0,s0,4
    80001810:	1057b423          	sd	t0,264(a5)
    80001814:	1497b423          	sd	s1,328(a5)
    80001818:	16a7b023          	sd	a0,352(a5)
    8000181c:	16a7b423          	sd	a0,360(a5)
    80001820:	16a7b823          	sd	a0,368(a5)
    80001824:	1957b023          	sd	s5,384(a5)
    80001828:	11873423          	sd	s8,264(a4)
    8000182c:	12b7b023          	sd	a1,288(a5)
    80001830:	13873423          	sd	s8,296(a4)
    80001834:	12b7b423          	sd	a1,296(a5)
    80001838:	13b73823          	sd	s11,304(a4)
    8000183c:	12b7b823          	sd	a1,304(a5)
    80001840:	14c7b023          	sd	a2,320(a5)
    80001844:	15873423          	sd	s8,328(a4)
    80001848:	0a86b023          	sd	s0,160(a3)
    8000184c:	0b36a423          	sw	s3,168(a3)
    80001850:	14c7b823          	sd	a2,336(a5)
    80001854:	17873423          	sd	s8,360(a4)
    80001858:	0ba6ac23          	sw	s10,184(a3)
    8000185c:	17b73823          	sd	s11,368(a4)
    80001860:	0d96b023          	sd	s9,192(a3)
    80001864:	0876ac23          	sw	t2,152(a3)
    80001868:	19873423          	sd	s8,392(a4)
    8000186c:	1b873423          	sd	s8,424(a4)
    80001870:	1d873423          	sd	s8,456(a4)
    80001874:	1f873423          	sd	s8,488(a4)
    80001878:	fffffc17          	auipc	s8,0xfffff
    8000187c:	0b8c0c13          	addi	s8,s8,184 # 80000930 <cpu_op_rti>
    80001880:	21873023          	sd	s8,512(a4)
    80001884:	020b9c13          	slli	s8,s7,0x20
    80001888:	017c0c33          	add	s8,s8,s7
    8000188c:	00000c97          	auipc	s9,0x0
    80001890:	c98c8c93          	addi	s9,s9,-872 # 80001524 <cpu_op_sec>
    80001894:	1d973023          	sd	s9,448(a4)
    80001898:	1186b023          	sd	s8,256(a3)
    8000189c:	01013c83          	ld	s9,16(sp)
    800018a0:	fffffc17          	auipc	s8,0xfffff
    800018a4:	6e4c0c13          	addi	s8,s8,1764 # 80000f84 <cpu_op_lsr>
    800018a8:	23873823          	sd	s8,560(a4)
    800018ac:	fffffc17          	auipc	s8,0xfffff
    800018b0:	ee0c0c13          	addi	s8,s8,-288 # 8000078c <cpu_op_pha>
    800018b4:	fffff417          	auipc	s0,0xfffff
    800018b8:	98040413          	addi	s0,s0,-1664 # 80000234 <cpu_op_eor>
    800018bc:	25873023          	sd	s8,576(a4)
    800018c0:	02191c13          	slli	s8,s2,0x21
    800018c4:	2057b423          	sd	t0,520(a5)
    800018c8:	19f7b423          	sd	t6,392(a5)
    800018cc:	0d66aa23          	sw	s6,212(a3)
    800018d0:	1b07b423          	sd	a6,424(a5)
    800018d4:	0da6ac23          	sw	s10,216(a3)
    800018d8:	1bb73823          	sd	s11,432(a4)
    800018dc:	1b07b823          	sd	a6,432(a5)
    800018e0:	1cc7b023          	sd	a2,448(a5)
    800018e4:	0f96b023          	sd	s9,224(a3)
    800018e8:	1dd7b423          	sd	t4,456(a5)
    800018ec:	0f66aa23          	sw	s6,244(a3)
    800018f0:	1f17b423          	sd	a7,488(a5)
    800018f4:	1fb73823          	sd	s11,496(a4)
    800018f8:	1f17b823          	sd	a7,496(a5)
    800018fc:	20c7b023          	sd	a2,512(a5)
    80001900:	20873423          	sd	s0,520(a4)
    80001904:	1146aa23          	sw	s4,276(a3)
    80001908:	22873423          	sd	s0,552(a4)
    8000190c:	22b7b423          	sd	a1,552(a5)
    80001910:	22b7b823          	sd	a1,560(a5)
    80001914:	24c7b023          	sd	a2,576(a5)
    80001918:	003c0c13          	addi	s8,s8,3
    8000191c:	0fe6ac23          	sw	t5,248(a3)
    80001920:	1076ac23          	sw	t2,280(a3)
    80001924:	24873423          	sd	s0,584(a4)
    80001928:	1386b023          	sd	s8,288(a3)
    8000192c:	fffffc17          	auipc	s8,0xfffff
    80001930:	5ecc0c13          	addi	s8,s8,1516 # 80000f18 <cpu_op_lsra>
    80001934:	25873823          	sd	s8,592(a4)
    80001938:	fffffc17          	auipc	s8,0xfffff
    8000193c:	b50c0c13          	addi	s8,s8,-1200 # 80000488 <cpu_op_jmp>
    80001940:	27873023          	sd	s8,608(a4)
    80001944:	fffffc17          	auipc	s8,0xfffff
    80001948:	20cc0c13          	addi	s8,s8,524 # 80000b50 <cpu_op_bvc>
    8000194c:	29873023          	sd	s8,640(a4)
    80001950:	00813c03          	ld	s8,8(sp)
    80001954:	02291d93          	slli	s11,s2,0x22
    80001958:	003d8d93          	addi	s11,s11,3
    8000195c:	1586b023          	sd	s8,320(a3)
    80001960:	00000c17          	auipc	s8,0x0
    80001964:	ba4c0c13          	addi	s8,s8,-1116 # 80001504 <cpu_op_cli>
    80001968:	2d873023          	sd	s8,704(a4)
    8000196c:	01013c03          	ld	s8,16(sp)
    80001970:	13b6b823          	sd	s11,304(a3)
    80001974:	fffffd97          	auipc	s11,0xfffff
    80001978:	610d8d93          	addi	s11,s11,1552 # 80000f84 <cpu_op_lsr>
    8000197c:	2497b423          	sd	s1,584(a5)
    80001980:	26a7b023          	sd	a0,608(a5)
    80001984:	26a7b423          	sd	a0,616(a5)
    80001988:	26a7b823          	sd	a0,624(a5)
    8000198c:	2957b023          	sd	s5,640(a5)
    80001990:	1336a423          	sw	s3,296(a3)
    80001994:	24c7b823          	sd	a2,592(a5)
    80001998:	26873423          	sd	s0,616(a4)
    8000199c:	13a6ac23          	sw	s10,312(a3)
    800019a0:	27b73823          	sd	s11,624(a4)
    800019a4:	28873423          	sd	s0,648(a4)
    800019a8:	29f7b423          	sd	t6,648(a5)
    800019ac:	1566aa23          	sw	s6,340(a3)
    800019b0:	2a873423          	sd	s0,680(a4)
    800019b4:	2b07b423          	sd	a6,680(a5)
    800019b8:	15a6ac23          	sw	s10,344(a3)
    800019bc:	2bb73823          	sd	s11,688(a4)
    800019c0:	2b07b823          	sd	a6,688(a5)
    800019c4:	2cc7b023          	sd	a2,704(a5)
    800019c8:	1786b023          	sd	s8,352(a3)
    800019cc:	2c873423          	sd	s0,712(a4)
    800019d0:	2dd7b423          	sd	t4,712(a5)
    800019d4:	1766aa23          	sw	s6,372(a3)
    800019d8:	2e873423          	sd	s0,744(a4)
    800019dc:	2fb73823          	sd	s11,752(a4)
    800019e0:	fffff417          	auipc	s0,0xfffff
    800019e4:	bec40413          	addi	s0,s0,-1044 # 800005cc <cpu_op_rts>
    800019e8:	020b9d93          	slli	s11,s7,0x20
    800019ec:	30873023          	sd	s0,768(a4)
    800019f0:	017d8433          	add	s0,s11,s7
    800019f4:	00300b93          	li	s7,3
    800019f8:	021b9b93          	slli	s7,s7,0x21
    800019fc:	002b8b93          	addi	s7,s7,2
    80001a00:	03713023          	sd	s7,32(sp)
    80001a04:	fffffb97          	auipc	s7,0xfffff
    80001a08:	a84b8b93          	addi	s7,s7,-1404 # 80000488 <cpu_op_jmp>
    80001a0c:	37773023          	sd	s7,864(a4)
    80001a10:	00002b97          	auipc	s7,0x2
    80001a14:	368b8b93          	addi	s7,s7,872 # 80003d78 <cpu_address_indirect>
    80001a18:	3777b023          	sd	s7,864(a5)
    80001a1c:	1886b023          	sd	s0,384(a3)
    80001a20:	02291b93          	slli	s7,s2,0x22
    80001a24:	00000417          	auipc	s0,0x0
    80001a28:	86040413          	addi	s0,s0,-1952 # 80001284 <cpu_op_ror>
    80001a2c:	32873823          	sd	s0,816(a4)
    80001a30:	02191d93          	slli	s11,s2,0x21
    80001a34:	fffff417          	auipc	s0,0xfffff
    80001a38:	e5440413          	addi	s0,s0,-428 # 80000888 <cpu_op_pla>
    80001a3c:	005b8b93          	addi	s7,s7,5
    80001a40:	fffffc97          	auipc	s9,0xfffff
    80001a44:	150c8c93          	addi	s9,s9,336 # 80000b90 <cpu_op_adc>
    80001a48:	34873023          	sd	s0,832(a4)
    80001a4c:	004d8d93          	addi	s11,s11,4
    80001a50:	fffff417          	auipc	s0,0xfffff
    80001a54:	7a440413          	addi	s0,s0,1956 # 800011f4 <cpu_op_rora>
    80001a58:	1b76b823          	sd	s7,432(a3)
    80001a5c:	00000b97          	auipc	s7,0x0
    80001a60:	828b8b93          	addi	s7,s7,-2008 # 80001284 <cpu_op_ror>
    80001a64:	3057b423          	sd	t0,776(a5)
    80001a68:	3497b423          	sd	s1,840(a5)
    80001a6c:	36a7b423          	sd	a0,872(a5)
    80001a70:	36a7b823          	sd	a0,880(a5)
    80001a74:	2f17b423          	sd	a7,744(a5)
    80001a78:	2f17b823          	sd	a7,752(a5)
    80001a7c:	30c7b023          	sd	a2,768(a5)
    80001a80:	31973423          	sd	s9,776(a4)
    80001a84:	1946aa23          	sw	s4,404(a3)
    80001a88:	33973423          	sd	s9,808(a4)
    80001a8c:	32b7b423          	sd	a1,808(a5)
    80001a90:	32b7b823          	sd	a1,816(a5)
    80001a94:	34c7b023          	sd	a2,832(a5)
    80001a98:	35973423          	sd	s9,840(a4)
    80001a9c:	1bb6b023          	sd	s11,416(a3)
    80001aa0:	1b36a423          	sw	s3,424(a3)
    80001aa4:	34873823          	sd	s0,848(a4)
    80001aa8:	02291c13          	slli	s8,s2,0x22
    80001aac:	34c7b823          	sd	a2,848(a5)
    80001ab0:	37973423          	sd	s9,872(a4)
    80001ab4:	1ba6ac23          	sw	s10,440(a3)
    80001ab8:	37773823          	sd	s7,880(a4)
    80001abc:	fffff917          	auipc	s2,0xfffff
    80001ac0:	f9490913          	addi	s2,s2,-108 # 80000a50 <cpu_op_bvs>
    80001ac4:	17e6ac23          	sw	t5,376(a3)
    80001ac8:	1876ac23          	sw	t2,408(a3)
    80001acc:	39273023          	sd	s2,896(a4)
    80001ad0:	00813903          	ld	s2,8(sp)
    80001ad4:	3b773823          	sd	s7,944(a4)
    80001ad8:	3f773823          	sd	s7,1008(a4)
    80001adc:	1d26b023          	sd	s2,448(a3)
    80001ae0:	fffffb97          	auipc	s7,0xfffff
    80001ae4:	b58b8b93          	addi	s7,s7,-1192 # 80000638 <cpu_op_sty>
    80001ae8:	00000917          	auipc	s2,0x0
    80001aec:	a5c90913          	addi	s2,s2,-1444 # 80001544 <cpu_op_sei>
    80001af0:	3d273023          	sd	s2,960(a4)
    80001af4:	43773023          	sd	s7,1056(a4)
    80001af8:	01013903          	ld	s2,16(sp)
    80001afc:	01813b83          	ld	s7,24(sp)
    80001b00:	fffffd97          	auipc	s11,0xfffff
    80001b04:	b10d8d93          	addi	s11,s11,-1264 # 80000610 <cpu_op_sta>
    80001b08:	3957b023          	sd	s5,896(a5)
    80001b0c:	4057b423          	sd	t0,1032(a5)
    80001b10:	39973423          	sd	s9,904(a4)
    80001b14:	39f7b423          	sd	t6,904(a5)
    80001b18:	1d66aa23          	sw	s6,468(a3)
    80001b1c:	3b973423          	sd	s9,936(a4)
    80001b20:	3b07b423          	sd	a6,936(a5)
    80001b24:	1da6ac23          	sw	s10,472(a3)
    80001b28:	3b07b823          	sd	a6,944(a5)
    80001b2c:	3cc7b023          	sd	a2,960(a5)
    80001b30:	1f26b023          	sd	s2,480(a3)
    80001b34:	3d973423          	sd	s9,968(a4)
    80001b38:	3dd7b423          	sd	t4,968(a5)
    80001b3c:	1f66aa23          	sw	s6,500(a3)
    80001b40:	3f973423          	sd	s9,1000(a4)
    80001b44:	3f17b423          	sd	a7,1000(a5)
    80001b48:	3f17b823          	sd	a7,1008(a5)
    80001b4c:	21a6a223          	sw	s10,516(a3)
    80001b50:	41b73423          	sd	s11,1032(a4)
    80001b54:	42b7b023          	sd	a1,1056(a5)
    80001b58:	43b73423          	sd	s11,1064(a4)
    80001b5c:	42b7b423          	sd	a1,1064(a5)
    80001b60:	2176b823          	sd	s7,528(a3)
    80001b64:	1fe6ac23          	sw	t5,504(a3)
    80001b68:	fffffb97          	auipc	s7,0xfffff
    80001b6c:	abcb8b93          	addi	s7,s7,-1348 # 80000624 <cpu_op_stx>
    80001b70:	2146ac23          	sw	s4,536(a3)
    80001b74:	43773823          	sd	s7,1072(a4)
    80001b78:	fffffb97          	auipc	s7,0xfffff
    80001b7c:	ac0b8b93          	addi	s7,s7,-1344 # 80000638 <cpu_op_sty>
    80001b80:	47773023          	sd	s7,1120(a4)
    80001b84:	fffffb97          	auipc	s7,0xfffff
    80001b88:	aa0b8b93          	addi	s7,s7,-1376 # 80000624 <cpu_op_stx>
    80001b8c:	47773823          	sd	s7,1136(a4)
    80001b90:	02013b83          	ld	s7,32(sp)
    80001b94:	fffff917          	auipc	s2,0xfffff
    80001b98:	9bc90913          	addi	s2,s2,-1604 # 80000550 <cpu_op_dey>
    80001b9c:	45273023          	sd	s2,1088(a4)
    80001ba0:	2576b023          	sd	s7,576(a3)
    80001ba4:	fffff917          	auipc	s2,0xfffff
    80001ba8:	80090913          	addi	s2,s2,-2048 # 800003a4 <cpu_op_txa>
    80001bac:	fffffb97          	auipc	s7,0xfffff
    80001bb0:	a8cb8b93          	addi	s7,s7,-1396 # 80000638 <cpu_op_sty>
    80001bb4:	45273823          	sd	s2,1104(a4)
    80001bb8:	4b773023          	sd	s7,1184(a4)
    80001bbc:	fffff917          	auipc	s2,0xfffff
    80001bc0:	f1490913          	addi	s2,s2,-236 # 80000ad0 <cpu_op_bcc>
    80001bc4:	00100b93          	li	s7,1
    80001bc8:	49273023          	sd	s2,1152(a4)
    80001bcc:	021b9913          	slli	s2,s7,0x21
    80001bd0:	00290b93          	addi	s7,s2,2
    80001bd4:	03713423          	sd	s7,40(sp)
    80001bd8:	fffffb97          	auipc	s7,0xfffff
    80001bdc:	a4cb8b93          	addi	s7,s7,-1460 # 80000624 <cpu_op_stx>
    80001be0:	00400413          	li	s0,4
    80001be4:	004c0c13          	addi	s8,s8,4
    80001be8:	4b773823          	sd	s7,1200(a4)
    80001bec:	fffff917          	auipc	s2,0xfffff
    80001bf0:	82090913          	addi	s2,s2,-2016 # 8000040c <cpu_op_tya>
    80001bf4:	00002b97          	auipc	s7,0x2
    80001bf8:	f24b8b93          	addi	s7,s7,-220 # 80003b18 <cpu_address_zero_page_y>
    80001bfc:	46a7b023          	sd	a0,1120(a5)
    80001c00:	46a7b423          	sd	a0,1128(a5)
    80001c04:	46a7b823          	sd	a0,1136(a5)
    80001c08:	4957b023          	sd	s5,1152(a5)
    80001c0c:	4b77b823          	sd	s7,1200(a5)
    80001c10:	42b7b823          	sd	a1,1072(a5)
    80001c14:	2336a023          	sw	s3,544(a3)
    80001c18:	44c7b023          	sd	a2,1088(a5)
    80001c1c:	2336a423          	sw	s3,552(a3)
    80001c20:	44c7b823          	sd	a2,1104(a5)
    80001c24:	47b73423          	sd	s11,1128(a4)
    80001c28:	2386b823          	sd	s8,560(a3)
    80001c2c:	2286ac23          	sw	s0,568(a3)
    80001c30:	49b73423          	sd	s11,1160(a4)
    80001c34:	49f7b423          	sd	t6,1160(a5)
    80001c38:	4b07b023          	sd	a6,1184(a5)
    80001c3c:	4bb73423          	sd	s11,1192(a4)
    80001c40:	4b07b423          	sd	a6,1192(a5)
    80001c44:	2586b823          	sd	s8,592(a3)
    80001c48:	2486ac23          	sw	s0,600(a3)
    80001c4c:	4d273023          	sd	s2,1216(a4)
    80001c50:	4cc7b023          	sd	a2,1216(a5)
    80001c54:	00813903          	ld	s2,8(sp)
    80001c58:	01813b83          	ld	s7,24(sp)
    80001c5c:	4db73423          	sd	s11,1224(a4)
    80001c60:	4fb73423          	sd	s11,1256(a4)
    80001c64:	02013d83          	ld	s11,32(sp)
    80001c68:	2736a423          	sw	s3,616(a3)
    80001c6c:	2936a423          	sw	s3,648(a3)
    80001c70:	ffffe997          	auipc	s3,0xffffe
    80001c74:	76898993          	addi	s3,s3,1896 # 800003d8 <cpu_op_tay>
    80001c78:	ffffeb17          	auipc	s6,0xffffe
    80001c7c:	644b0b13          	addi	s6,s6,1604 # 800002bc <cpu_op_lda>
    80001c80:	ffffed17          	auipc	s10,0xffffe
    80001c84:	6b4d0d13          	addi	s10,s10,1716 # 80000334 <cpu_op_ldy>
    80001c88:	ffffec97          	auipc	s9,0xffffe
    80001c8c:	670c8c93          	addi	s9,s9,1648 # 800002f8 <cpu_op_ldx>
    80001c90:	2726b023          	sd	s2,608(a3)
    80001c94:	55373023          	sd	s3,1344(a4)
    80001c98:	ffffe917          	auipc	s2,0xffffe
    80001c9c:	7dc90913          	addi	s2,s2,2012 # 80000474 <cpu_op_txs>
    80001ca0:	00200993          	li	s3,2
    80001ca4:	5097b023          	sd	s1,1280(a5)
    80001ca8:	5057b423          	sd	t0,1288(a5)
    80001cac:	5097b823          	sd	s1,1296(a5)
    80001cb0:	5497b423          	sd	s1,1352(a5)
    80001cb4:	4dd7b423          	sd	t4,1224(a5)
    80001cb8:	4cc7b823          	sd	a2,1232(a5)
    80001cbc:	4f17b423          	sd	a7,1256(a5)
    80001cc0:	51a73023          	sd	s10,1280(a4)
    80001cc4:	51673423          	sd	s6,1288(a4)
    80001cc8:	29b6b023          	sd	s11,640(a3)
    80001ccc:	51973823          	sd	s9,1296(a4)
    80001cd0:	53a73023          	sd	s10,1312(a4)
    80001cd4:	52b7b023          	sd	a1,1312(a5)
    80001cd8:	53673423          	sd	s6,1320(a4)
    80001cdc:	52b7b423          	sd	a1,1320(a5)
    80001ce0:	2976b823          	sd	s7,656(a3)
    80001ce4:	2946ac23          	sw	s4,664(a3)
    80001ce8:	53973823          	sd	s9,1328(a4)
    80001cec:	52b7b823          	sd	a1,1328(a5)
    80001cf0:	54c7b023          	sd	a2,1344(a5)
    80001cf4:	55673423          	sd	s6,1352(a4)
    80001cf8:	4d273823          	sd	s2,1232(a4)
    80001cfc:	2676aa23          	sw	t2,628(a3)
    80001d00:	02813903          	ld	s2,40(sp)
    80001d04:	2b36a423          	sw	s3,680(a3)
    80001d08:	ffffe997          	auipc	s3,0xffffe
    80001d0c:	66898993          	addi	s3,s3,1640 # 80000370 <cpu_op_tax>
    80001d10:	55373823          	sd	s3,1360(a4)
    80001d14:	fffff997          	auipc	s3,0xfffff
    80001d18:	c7c98993          	addi	s3,s3,-900 # 80000990 <cpu_op_bcs>
    80001d1c:	59373023          	sd	s3,1408(a4)
    80001d20:	00813983          	ld	s3,8(sp)
    80001d24:	56a7b023          	sd	a0,1376(a5)
    80001d28:	56a7b423          	sd	a0,1384(a5)
    80001d2c:	2d36b023          	sd	s3,704(a3)
    80001d30:	00002997          	auipc	s3,0x2
    80001d34:	de898993          	addi	s3,s3,-536 # 80003b18 <cpu_address_zero_page_y>
    80001d38:	5b37b823          	sd	s3,1456(a5)
    80001d3c:	fffff997          	auipc	s3,0xfffff
    80001d40:	7d898993          	addi	s3,s3,2008 # 80001514 <cpu_op_clv>
    80001d44:	5d373023          	sd	s3,1472(a4)
    80001d48:	01013983          	ld	s3,16(sp)
    80001d4c:	56a7b823          	sd	a0,1392(a5)
    80001d50:	5957b023          	sd	s5,1408(a5)
    80001d54:	2b26b023          	sd	s2,672(a3)
    80001d58:	54c7b823          	sd	a2,1360(a5)
    80001d5c:	57a73023          	sd	s10,1376(a4)
    80001d60:	57673423          	sd	s6,1384(a4)
    80001d64:	2b86b823          	sd	s8,688(a3)
    80001d68:	2a86ac23          	sw	s0,696(a3)
    80001d6c:	57973823          	sd	s9,1392(a4)
    80001d70:	59673423          	sd	s6,1416(a4)
    80001d74:	59f7b423          	sd	t6,1416(a5)
    80001d78:	5ba73023          	sd	s10,1440(a4)
    80001d7c:	5b07b023          	sd	a6,1440(a5)
    80001d80:	5b673423          	sd	s6,1448(a4)
    80001d84:	5b07b423          	sd	a6,1448(a5)
    80001d88:	2d86b823          	sd	s8,720(a3)
    80001d8c:	2c86ac23          	sw	s0,728(a3)
    80001d90:	5b973823          	sd	s9,1456(a4)
    80001d94:	5cc7b023          	sd	a2,1472(a5)
    80001d98:	5d673423          	sd	s6,1480(a4)
    80001d9c:	5dd7b423          	sd	t4,1480(a5)
    80001da0:	2f36b023          	sd	s3,736(a3)
    80001da4:	5f673423          	sd	s6,1512(a4)
    80001da8:	00500b13          	li	s6,5
    80001dac:	5f973823          	sd	s9,1520(a4)
    80001db0:	3166ac23          	sw	s6,792(a3)
    80001db4:	02013c83          	ld	s9,32(sp)
    80001db8:	ffffeb17          	auipc	s6,0xffffe
    80001dbc:	720b0b13          	addi	s6,s6,1824 # 800004d8 <cpu_op_iny>
    80001dc0:	00200993          	li	s3,2
    80001dc4:	5fa73023          	sd	s10,1504(a4)
    80001dc8:	65673023          	sd	s6,1600(a4)
    80001dcc:	fffffd17          	auipc	s10,0xfffff
    80001dd0:	6a0d0d13          	addi	s10,s10,1696 # 8000146c <cpu_op_cpy>
    80001dd4:	00200b13          	li	s6,2
    80001dd8:	fffffd97          	auipc	s11,0xfffff
    80001ddc:	568d8d93          	addi	s11,s11,1384 # 80001340 <cpu_op_cmp>
    80001de0:	2f36a423          	sw	s3,744(a3)
    80001de4:	61a73023          	sd	s10,1536(a4)
    80001de8:	ffffe997          	auipc	s3,0xffffe
    80001dec:	65898993          	addi	s3,s3,1624 # 80000440 <cpu_op_tsx>
    80001df0:	63a73023          	sd	s10,1568(a4)
    80001df4:	3366a423          	sw	s6,808(a3)
    80001df8:	fffffd17          	auipc	s10,0xfffff
    80001dfc:	8b8d0d13          	addi	s10,s10,-1864 # 800006b0 <cpu_op_dec>
    80001e00:	ffffeb17          	auipc	s6,0xffffe
    80001e04:	714b0b13          	addi	s6,s6,1812 # 80000514 <cpu_op_dex>
    80001e08:	6097b023          	sd	s1,1536(a5)
    80001e0c:	6057b423          	sd	t0,1544(a5)
    80001e10:	6497b423          	sd	s1,1608(a5)
    80001e14:	5d373823          	sd	s3,1488(a4)
    80001e18:	5cc7b823          	sd	a2,1488(a5)
    80001e1c:	5f17b023          	sd	a7,1504(a5)
    80001e20:	5f17b423          	sd	a7,1512(a5)
    80001e24:	2f86b823          	sd	s8,752(a3)
    80001e28:	2e86ac23          	sw	s0,760(a3)
    80001e2c:	5fd7b823          	sd	t4,1520(a5)
    80001e30:	3196b023          	sd	s9,768(a3)
    80001e34:	61b73423          	sd	s11,1544(a4)
    80001e38:	62b7b023          	sd	a1,1568(a5)
    80001e3c:	63b73423          	sd	s11,1576(a4)
    80001e40:	62b7b423          	sd	a1,1576(a5)
    80001e44:	3176b823          	sd	s7,784(a3)
    80001e48:	63a73823          	sd	s10,1584(a4)
    80001e4c:	62b7b823          	sd	a1,1584(a5)
    80001e50:	64c7b023          	sd	a2,1600(a5)
    80001e54:	65b73423          	sd	s11,1608(a4)
    80001e58:	3326b023          	sd	s2,800(a3)
    80001e5c:	65673823          	sd	s6,1616(a4)
    80001e60:	fffffb17          	auipc	s6,0xfffff
    80001e64:	850b0b13          	addi	s6,s6,-1968 # 800006b0 <cpu_op_dec>
    80001e68:	64c7b823          	sd	a2,1616(a5)
    80001e6c:	67673823          	sd	s6,1648(a4)
    80001e70:	fffffb17          	auipc	s6,0xfffff
    80001e74:	c20b0b13          	addi	s6,s6,-992 # 80000a90 <cpu_op_bne>
    80001e78:	69673023          	sd	s6,1664(a4)
    80001e7c:	00813b03          	ld	s6,8(sp)
    80001e80:	fffffd17          	auipc	s10,0xfffff
    80001e84:	5ecd0d13          	addi	s10,s10,1516 # 8000146c <cpu_op_cpy>
    80001e88:	67b73423          	sd	s11,1640(a4)
    80001e8c:	3566b023          	sd	s6,832(a3)
    80001e90:	fffffb17          	auipc	s6,0xfffff
    80001e94:	820b0b13          	addi	s6,s6,-2016 # 800006b0 <cpu_op_dec>
    80001e98:	6b673823          	sd	s6,1712(a4)
    80001e9c:	fffffb17          	auipc	s6,0xfffff
    80001ea0:	658b0b13          	addi	s6,s6,1624 # 800014f4 <cpu_op_cld>
    80001ea4:	6d673023          	sd	s6,1728(a4)
    80001ea8:	01013b03          	ld	s6,16(sp)
    80001eac:	69b73423          	sd	s11,1672(a4)
    80001eb0:	6bb73423          	sd	s11,1704(a4)
    80001eb4:	6db73423          	sd	s11,1736(a4)
    80001eb8:	6fb73423          	sd	s11,1768(a4)
    80001ebc:	ffffed97          	auipc	s11,0xffffe
    80001ec0:	7f4d8d93          	addi	s11,s11,2036 # 800006b0 <cpu_op_dec>
    80001ec4:	66a7b023          	sd	a0,1632(a5)
    80001ec8:	66a7b423          	sd	a0,1640(a5)
    80001ecc:	66a7b823          	sd	a0,1648(a5)
    80001ed0:	6957b023          	sd	s5,1664(a5)
    80001ed4:	67a73023          	sd	s10,1632(a4)
    80001ed8:	3386b823          	sd	s8,816(a3)
    80001edc:	33c6ac23          	sw	t3,824(a3)
    80001ee0:	69f7b423          	sd	t6,1672(a5)
    80001ee4:	3486aa23          	sw	s0,852(a3)
    80001ee8:	6b07b423          	sd	a6,1704(a5)
    80001eec:	35c6ac23          	sw	t3,856(a3)
    80001ef0:	6b07b823          	sd	a6,1712(a5)
    80001ef4:	6cc7b023          	sd	a2,1728(a5)
    80001ef8:	3766b023          	sd	s6,864(a3)
    80001efc:	6dd7b423          	sd	t4,1736(a5)
    80001f00:	fffffb17          	auipc	s6,0xfffff
    80001f04:	4f4b0b13          	addi	s6,s6,1268 # 800013f4 <cpu_op_cpx>
    80001f08:	3686aa23          	sw	s0,884(a3)
    80001f0c:	6f17b423          	sd	a7,1768(a5)
    80001f10:	6fb73823          	sd	s11,1776(a4)
    80001f14:	6f17b823          	sd	a7,1776(a5)
    80001f18:	37e6ac23          	sw	t5,888(a3)
    80001f1c:	71673023          	sd	s6,1792(a4)
    80001f20:	ffffed97          	auipc	s11,0xffffe
    80001f24:	57cd8d93          	addi	s11,s11,1404 # 8000049c <cpu_op_inx>
    80001f28:	3b26b023          	sd	s2,928(a3)
    80001f2c:	00813903          	ld	s2,8(sp)
    80001f30:	75b73023          	sd	s11,1856(a4)
    80001f34:	fffffd97          	auipc	s11,0xfffff
    80001f38:	620d8d93          	addi	s11,s11,1568 # 80001554 <cpu_op_nop>
    80001f3c:	fffff997          	auipc	s3,0xfffff
    80001f40:	d1c98993          	addi	s3,s3,-740 # 80000c58 <cpu_op_sbc>
    80001f44:	ffffed17          	auipc	s10,0xffffe
    80001f48:	708d0d13          	addi	s10,s10,1800 # 8000064c <cpu_op_inc>
    80001f4c:	3976b823          	sd	s7,912(a3)
    80001f50:	75b73823          	sd	s11,1872(a4)
    80001f54:	00200b93          	li	s7,2
    80001f58:	fffffd97          	auipc	s11,0xfffff
    80001f5c:	49cd8d93          	addi	s11,s11,1180 # 800013f4 <cpu_op_cpx>
    80001f60:	3b86b823          	sd	s8,944(a3)
    80001f64:	fffffc17          	auipc	s8,0xfffff
    80001f68:	a6cc0c13          	addi	s8,s8,-1428 # 800009d0 <cpu_op_beq>
    80001f6c:	7097b023          	sd	s1,1792(a5)
    80001f70:	7057b423          	sd	t0,1800(a5)
    80001f74:	7497b423          	sd	s1,1864(a5)
    80001f78:	76a7b023          	sd	a0,1888(a5)
    80001f7c:	76a7b423          	sd	a0,1896(a5)
    80001f80:	76a7b823          	sd	a0,1904(a5)
    80001f84:	7957b023          	sd	s5,1920(a5)
    80001f88:	3996b023          	sd	s9,896(a3)
    80001f8c:	71373423          	sd	s3,1800(a4)
    80001f90:	73673023          	sd	s6,1824(a4)
    80001f94:	72b7b023          	sd	a1,1824(a5)
    80001f98:	73373423          	sd	s3,1832(a4)
    80001f9c:	72b7b423          	sd	a1,1832(a5)
    80001fa0:	73a73823          	sd	s10,1840(a4)
    80001fa4:	72b7b823          	sd	a1,1840(a5)
    80001fa8:	74c7b023          	sd	a2,1856(a5)
    80001fac:	75373423          	sd	s3,1864(a4)
    80001fb0:	3b76a423          	sw	s7,936(a3)
    80001fb4:	74c7b823          	sd	a2,1872(a5)
    80001fb8:	77b73023          	sd	s11,1888(a4)
    80001fbc:	77373423          	sd	s3,1896(a4)
    80001fc0:	3bc6ac23          	sw	t3,952(a3)
    80001fc4:	77a73823          	sd	s10,1904(a4)
    80001fc8:	79873023          	sd	s8,1920(a4)
    80001fcc:	3d26b023          	sd	s2,960(a3)
    80001fd0:	3876ac23          	sw	t2,920(a3)
    80001fd4:	79373423          	sd	s3,1928(a4)
    80001fd8:	01013b83          	ld	s7,16(sp)
    80001fdc:	00800b13          	li	s6,8
    80001fe0:	fffffc97          	auipc	s9,0xfffff
    80001fe4:	ee0c8c93          	addi	s9,s9,-288 # 80000ec0 <cpu_op_aso>
    80001fe8:	fffffc17          	auipc	s8,0xfffff
    80001fec:	54cc0c13          	addi	s8,s8,1356 # 80001534 <cpu_op_sed>
    80001ff0:	fffffa97          	auipc	s5,0xfffff
    80001ff4:	1b0a8a93          	addi	s5,s5,432 # 800011a0 <cpu_op_rla>
    80001ff8:	fffff917          	auipc	s2,0xfffff
    80001ffc:	01490913          	addi	s2,s2,20 # 8000100c <cpu_op_lse>
    80002000:	0057bc23          	sd	t0,24(a5)
    80002004:	06a7bc23          	sd	a0,120(a5)
    80002008:	79f7b423          	sd	t6,1928(a5)
    8000200c:	3c86aa23          	sw	s0,980(a3)
    80002010:	7b373423          	sd	s3,1960(a4)
    80002014:	7b07b423          	sd	a6,1960(a5)
    80002018:	3dc6ac23          	sw	t3,984(a3)
    8000201c:	7ba73823          	sd	s10,1968(a4)
    80002020:	7b07b823          	sd	a6,1968(a5)
    80002024:	7d873023          	sd	s8,1984(a4)
    80002028:	7cc7b023          	sd	a2,1984(a5)
    8000202c:	3f76b023          	sd	s7,992(a3)
    80002030:	7d373423          	sd	s3,1992(a4)
    80002034:	7dd7b423          	sd	t4,1992(a5)
    80002038:	3e86aa23          	sw	s0,1012(a3)
    8000203c:	7f373423          	sd	s3,2024(a4)
    80002040:	7f17b423          	sd	a7,2024(a5)
    80002044:	7fa73823          	sd	s10,2032(a4)
    80002048:	7f17b823          	sd	a7,2032(a5)
    8000204c:	0166a623          	sw	s6,12(a3)
    80002050:	01973c23          	sd	s9,24(a4)
    80002054:	03973c23          	sd	s9,56(a4)
    80002058:	02b7bc23          	sd	a1,56(a5)
    8000205c:	03c6ae23          	sw	t3,60(a3)
    80002060:	07973c23          	sd	s9,120(a4)
    80002064:	0566a623          	sw	s6,76(a3)
    80002068:	09973c23          	sd	s9,152(a4)
    8000206c:	09f7bc23          	sd	t6,152(a5)
    80002070:	05c6ae23          	sw	t3,92(a3)
    80002074:	3fe6ac23          	sw	t5,1016(a3)
    80002078:	0076ae23          	sw	t2,28(a3)
    8000207c:	0b973c23          	sd	s9,184(a4)
    80002080:	fffffb97          	auipc	s7,0xfffff
    80002084:	2a8b8b93          	addi	s7,s7,680 # 80001328 <cpu_op_rra>
    80002088:	1057bc23          	sd	t0,280(a5)
    8000208c:	16a7bc23          	sd	a0,376(a5)
    80002090:	2057bc23          	sd	t0,536(a5)
    80002094:	0b07bc23          	sd	a6,184(a5)
    80002098:	0d973c23          	sd	s9,216(a4)
    8000209c:	0dd7bc23          	sd	t4,216(a5)
    800020a0:	0f973c23          	sd	s9,248(a4)
    800020a4:	0f17bc23          	sd	a7,248(a5)
    800020a8:	0966a623          	sw	s6,140(a3)
    800020ac:	11573c23          	sd	s5,280(a4)
    800020b0:	13573c23          	sd	s5,312(a4)
    800020b4:	12b7bc23          	sd	a1,312(a5)
    800020b8:	0bc6ae23          	sw	t3,188(a3)
    800020bc:	17573c23          	sd	s5,376(a4)
    800020c0:	0d66a623          	sw	s6,204(a3)
    800020c4:	19573c23          	sd	s5,408(a4)
    800020c8:	19f7bc23          	sd	t6,408(a5)
    800020cc:	0dc6ae23          	sw	t3,220(a3)
    800020d0:	1b573c23          	sd	s5,440(a4)
    800020d4:	1b07bc23          	sd	a6,440(a5)
    800020d8:	1d573c23          	sd	s5,472(a4)
    800020dc:	1dd7bc23          	sd	t4,472(a5)
    800020e0:	1f573c23          	sd	s5,504(a4)
    800020e4:	1f17bc23          	sd	a7,504(a5)
    800020e8:	1166a623          	sw	s6,268(a3)
    800020ec:	21273c23          	sd	s2,536(a4)
    800020f0:	07e6a623          	sw	t5,108(a3)
    800020f4:	07e6ae23          	sw	t5,124(a3)
    800020f8:	0876ae23          	sw	t2,156(a3)
    800020fc:	0fe6a623          	sw	t5,236(a3)
    80002100:	0fe6ae23          	sw	t5,252(a3)
    80002104:	1076ae23          	sw	t2,284(a3)
    80002108:	23273c23          	sd	s2,568(a4)
    8000210c:	ffffec17          	auipc	s8,0xffffe
    80002110:	63cc0c13          	addi	s8,s8,1596 # 80000748 <cpu_op_axs>
    80002114:	26a7bc23          	sd	a0,632(a5)
    80002118:	3057bc23          	sd	t0,792(a5)
    8000211c:	36a7bc23          	sd	a0,888(a5)
    80002120:	22b7bc23          	sd	a1,568(a5)
    80002124:	13c6ae23          	sw	t3,316(a3)
    80002128:	27273c23          	sd	s2,632(a4)
    8000212c:	1566a623          	sw	s6,332(a3)
    80002130:	29273c23          	sd	s2,664(a4)
    80002134:	29f7bc23          	sd	t6,664(a5)
    80002138:	15c6ae23          	sw	t3,348(a3)
    8000213c:	2b273c23          	sd	s2,696(a4)
    80002140:	2b07bc23          	sd	a6,696(a5)
    80002144:	2d273c23          	sd	s2,728(a4)
    80002148:	2dd7bc23          	sd	t4,728(a5)
    8000214c:	2f273c23          	sd	s2,760(a4)
    80002150:	2f17bc23          	sd	a7,760(a5)
    80002154:	1966a623          	sw	s6,396(a3)
    80002158:	31773c23          	sd	s7,792(a4)
    8000215c:	33773c23          	sd	s7,824(a4)
    80002160:	32b7bc23          	sd	a1,824(a5)
    80002164:	1bc6ae23          	sw	t3,444(a3)
    80002168:	37773c23          	sd	s7,888(a4)
    8000216c:	1d66a623          	sw	s6,460(a3)
    80002170:	39773c23          	sd	s7,920(a4)
    80002174:	39f7bc23          	sd	t6,920(a5)
    80002178:	1dc6ae23          	sw	t3,476(a3)
    8000217c:	3b773c23          	sd	s7,952(a4)
    80002180:	3b07bc23          	sd	a6,952(a5)
    80002184:	17e6a623          	sw	t5,364(a3)
    80002188:	17e6ae23          	sw	t5,380(a3)
    8000218c:	1876ae23          	sw	t2,412(a3)
    80002190:	1fe6a623          	sw	t5,492(a3)
    80002194:	3d773c23          	sd	s7,984(a4)
    80002198:	ffffea97          	auipc	s5,0xffffe
    8000219c:	3f4a8a93          	addi	s5,s5,1012 # 8000058c <cpu_op_lax>
    800021a0:	ffffec97          	auipc	s9,0xffffe
    800021a4:	574c8c93          	addi	s9,s9,1396 # 80000714 <cpu_op_axa>
    800021a8:	41873c23          	sd	s8,1048(a4)
    800021ac:	43873c23          	sd	s8,1080(a4)
    800021b0:	47873c23          	sd	s8,1144(a4)
    800021b4:	4b873c23          	sd	s8,1208(a4)
    800021b8:	00002c17          	auipc	s8,0x2
    800021bc:	960c0c13          	addi	s8,s8,-1696 # 80003b18 <cpu_address_zero_page_y>
    800021c0:	fffff917          	auipc	s2,0xfffff
    800021c4:	b6890913          	addi	s2,s2,-1176 # 80000d28 <cpu_op_ins>
    800021c8:	4057bc23          	sd	t0,1048(a5)
    800021cc:	46a7bc23          	sd	a0,1144(a5)
    800021d0:	4b87bc23          	sd	s8,1208(a5)
    800021d4:	5057bc23          	sd	t0,1304(a5)
    800021d8:	56a7bc23          	sd	a0,1400(a5)
    800021dc:	3dd7bc23          	sd	t4,984(a5)
    800021e0:	3f773c23          	sd	s7,1016(a4)
    800021e4:	3f17bc23          	sd	a7,1016(a5)
    800021e8:	fffffb97          	auipc	s7,0xfffff
    800021ec:	1d0b8b93          	addi	s7,s7,464 # 800013b8 <cpu_op_dcm>
    800021f0:	21c6a623          	sw	t3,524(a3)
    800021f4:	2146ae23          	sw	s4,540(a3)
    800021f8:	42b7bc23          	sd	a1,1080(a5)
    800021fc:	2286ae23          	sw	s0,572(a3)
    80002200:	25c6a623          	sw	t3,588(a3)
    80002204:	49973c23          	sd	s9,1176(a4)
    80002208:	49f7bc23          	sd	t6,1176(a5)
    8000220c:	2486ae23          	sw	s0,604(a3)
    80002210:	4f973c23          	sd	s9,1272(a4)
    80002214:	4fd7bc23          	sd	t4,1272(a5)
    80002218:	29c6a623          	sw	t3,652(a3)
    8000221c:	51573c23          	sd	s5,1304(a4)
    80002220:	2946ae23          	sw	s4,668(a3)
    80002224:	53573c23          	sd	s5,1336(a4)
    80002228:	52b7bc23          	sd	a1,1336(a5)
    8000222c:	2a86ae23          	sw	s0,700(a3)
    80002230:	57573c23          	sd	s5,1400(a4)
    80002234:	1fe6ae23          	sw	t5,508(a3)
    80002238:	2676ae23          	sw	t2,636(a3)
    8000223c:	2c76a623          	sw	t2,716(a3)
    80002240:	59573c23          	sd	s5,1432(a4)
    80002244:	00100313          	li	t1,1
    80002248:	5b87bc23          	sd	s8,1464(a5)
    8000224c:	6057bc23          	sd	t0,1560(a5)
    80002250:	66a7bc23          	sd	a0,1656(a5)
    80002254:	7057bc23          	sd	t0,1816(a5)
    80002258:	59f7bc23          	sd	t6,1432(a5)
    8000225c:	2c86ae23          	sw	s0,732(a3)
    80002260:	5b573c23          	sd	s5,1464(a4)
    80002264:	2e86ae23          	sw	s0,764(a3)
    80002268:	5f573c23          	sd	s5,1528(a4)
    8000226c:	ffffe417          	auipc	s0,0xffffe
    80002270:	f8440413          	addi	s0,s0,-124 # 800001f0 <____FE____>
    80002274:	5fd7bc23          	sd	t4,1528(a5)
    80002278:	3166a623          	sw	s6,780(a3)
    8000227c:	61773c23          	sd	s7,1560(a4)
    80002280:	63773c23          	sd	s7,1592(a4)
    80002284:	62b7bc23          	sd	a1,1592(a5)
    80002288:	33c6ae23          	sw	t3,828(a3)
    8000228c:	67773c23          	sd	s7,1656(a4)
    80002290:	3566a623          	sw	s6,844(a3)
    80002294:	69773c23          	sd	s7,1688(a4)
    80002298:	69f7bc23          	sd	t6,1688(a5)
    8000229c:	35c6ae23          	sw	t3,860(a3)
    800022a0:	6b773c23          	sd	s7,1720(a4)
    800022a4:	6b07bc23          	sd	a6,1720(a5)
    800022a8:	6d773c23          	sd	s7,1752(a4)
    800022ac:	6dd7bc23          	sd	t4,1752(a5)
    800022b0:	6f773c23          	sd	s7,1784(a4)
    800022b4:	6f17bc23          	sd	a7,1784(a5)
    800022b8:	3966a623          	sw	s6,908(a3)
    800022bc:	71273c23          	sd	s2,1816(a4)
    800022c0:	73273c23          	sd	s2,1848(a4)
    800022c4:	00200b93          	li	s7,2
    800022c8:	3076ae23          	sw	t2,796(a3)
    800022cc:	37e6ae23          	sw	t5,892(a3)
    800022d0:	3876ae23          	sw	t2,924(a3)
    800022d4:	72b7bc23          	sd	a1,1848(a5)
    800022d8:	7497bc23          	sd	s1,1880(a5)
    800022dc:	76a7bc23          	sd	a0,1912(a5)
    800022e0:	06a7b023          	sd	a0,96(a5)
    800022e4:	3b76a623          	sw	s7,940(a3)
    800022e8:	75373c23          	sd	s3,1880(a4)
    800022ec:	3bc6ae23          	sw	t3,956(a3)
    800022f0:	77273c23          	sd	s2,1912(a4)
    800022f4:	3d66a623          	sw	s6,972(a3)
    800022f8:	79273c23          	sd	s2,1944(a4)
    800022fc:	79f7bc23          	sd	t6,1944(a5)
    80002300:	3dc6ae23          	sw	t3,988(a3)
    80002304:	7b273c23          	sd	s2,1976(a4)
    80002308:	7b07bc23          	sd	a6,1976(a5)
    8000230c:	7d273c23          	sd	s2,2008(a4)
    80002310:	7dd7bc23          	sd	t4,2008(a5)
    80002314:	7f273c23          	sd	s2,2040(a4)
    80002318:	7f17bc23          	sd	a7,2040(a5)
    8000231c:	02873023          	sd	s0,32(a4)
    80002320:	02b7b023          	sd	a1,32(a5)
    80002324:	06873023          	sd	s0,96(a4)
    80002328:	0a873023          	sd	s0,160(a4)
    8000232c:	0b07b023          	sd	a6,160(a5)
    80002330:	0c873823          	sd	s0,208(a4)
    80002334:	0cc7b823          	sd	a2,208(a5)
    80002338:	0e873023          	sd	s0,224(a4)
    8000233c:	0f17b023          	sd	a7,224(a5)
    80002340:	3fe6ae23          	sw	t5,1020(a3)
    80002344:	0066a823          	sw	t1,16(a3)
    80002348:	0266a823          	sw	t1,48(a3)
    8000234c:	0466a823          	sw	t1,80(a3)
    80002350:	0666a423          	sw	t1,104(a3)
    80002354:	0666a823          	sw	t1,112(a3)
    80002358:	0c66a823          	sw	t1,208(a3)
    8000235c:	1a873023          	sd	s0,416(a4)
    80002360:	1b07b023          	sd	a6,416(a5)
    80002364:	1c873823          	sd	s0,464(a4)
    80002368:	1cc7b823          	sd	a2,464(a5)
    8000236c:	1e873023          	sd	s0,480(a4)
    80002370:	1f17b023          	sd	a7,480(a5)
    80002374:	22873023          	sd	s0,544(a4)
    80002378:	22b7b023          	sd	a1,544(a5)
    8000237c:	2a873023          	sd	s0,672(a4)
    80002380:	2b07b023          	sd	a6,672(a5)
    80002384:	2c873823          	sd	s0,720(a4)
    80002388:	2cc7b823          	sd	a2,720(a5)
    8000238c:	2e873023          	sd	s0,736(a4)
    80002390:	2f17b023          	sd	a7,736(a5)
    80002394:	32873023          	sd	s0,800(a4)
    80002398:	32b7b023          	sd	a1,800(a5)
    8000239c:	3a873023          	sd	s0,928(a4)
    800023a0:	3b07b023          	sd	a6,928(a5)
    800023a4:	3c873823          	sd	s0,976(a4)
    800023a8:	3cc7b823          	sd	a2,976(a5)
    800023ac:	3e873023          	sd	s0,992(a4)
    800023b0:	3f17b023          	sd	a7,992(a5)
    800023b4:	0e66a423          	sw	t1,232(a3)
    800023b8:	0e66a823          	sw	t1,240(a3)
    800023bc:	1066a823          	sw	t1,272(a3)
    800023c0:	1466a823          	sw	t1,336(a3)
    800023c4:	1666a423          	sw	t1,360(a3)
    800023c8:	1666a823          	sw	t1,368(a3)
    800023cc:	1866a823          	sw	t1,400(a3)
    800023d0:	1c66a823          	sw	t1,464(a3)
    800023d4:	1e66a423          	sw	t1,488(a3)
    800023d8:	1e66a823          	sw	t1,496(a3)
    800023dc:	2066a023          	sw	t1,512(a3)
    800023e0:	00162e17          	auipc	t3,0x162
    800023e4:	fb8e0e13          	addi	t3,t3,-72 # 80164398 <cpu>
    800023e8:	4097b023          	sd	s1,1024(a5)
    800023ec:	6b07b023          	sd	a6,1696(a5)
    800023f0:	6cc7b823          	sd	a2,1744(a5)
    800023f4:	6f17b023          	sd	a7,1760(a5)
    800023f8:	7b07b023          	sd	a6,1952(a5)
    800023fc:	7cc7b823          	sd	a2,2000(a5)
    80002400:	7f17b023          	sd	a7,2016(a5)
    80002404:	02400793          	li	a5,36
    80002408:	000e1123          	sh	zero,2(t3)
    8000240c:	000e1223          	sh	zero,4(t3)
    80002410:	00fe0323          	sb	a5,6(t3)
    80002414:	40873023          	sd	s0,1024(a4)
    80002418:	6a873023          	sd	s0,1696(a4)
    8000241c:	6c873823          	sd	s0,1744(a4)
    80002420:	6e873023          	sd	s0,1760(a4)
    80002424:	7a873023          	sd	s0,1952(a4)
    80002428:	7c873823          	sd	s0,2000(a4)
    8000242c:	7e873023          	sd	s0,2016(a4)
    80002430:	00700293          	li	t0,7
    80002434:	08813403          	ld	s0,136(sp)
    80002438:	02029513          	slli	a0,t0,0x20
    8000243c:	00150513          	addi	a0,a0,1
    80002440:	08013483          	ld	s1,128(sp)
    80002444:	07813903          	ld	s2,120(sp)
    80002448:	07013983          	ld	s3,112(sp)
    8000244c:	06813a03          	ld	s4,104(sp)
    80002450:	06013a83          	ld	s5,96(sp)
    80002454:	05813b03          	ld	s6,88(sp)
    80002458:	05013b83          	ld	s7,80(sp)
    8000245c:	04813c03          	ld	s8,72(sp)
    80002460:	3466a823          	sw	t1,848(a3)
    80002464:	36a6b423          	sd	a0,872(a3)
    80002468:	3666a823          	sw	t1,880(a3)
    8000246c:	3c66a823          	sw	t1,976(a3)
    80002470:	3ea6b423          	sd	a0,1000(a3)
    80002474:	3e66a823          	sw	t1,1008(a3)
    80002478:	04013c83          	ld	s9,64(sp)
    8000247c:	03813d03          	ld	s10,56(sp)
    80002480:	03013d83          	ld	s11,48(sp)
    80002484:	09010113          	addi	sp,sp,144
    80002488:	00008067          	ret

000000008000248c <cpu_reset>:
    8000248c:	00010537          	lui	a0,0x10
    80002490:	ff010113          	addi	sp,sp,-16
    80002494:	ffc50513          	addi	a0,a0,-4 # fffc <_entry_offset+0xfffc>
    80002498:	00113423          	sd	ra,8(sp)
    8000249c:	cc5fd0ef          	jal	ra,80000160 <memory_readw>
    800024a0:	00162797          	auipc	a5,0x162
    800024a4:	ef878793          	addi	a5,a5,-264 # 80164398 <cpu>
    800024a8:	0027c683          	lbu	a3,2(a5)
    800024ac:	0067c703          	lbu	a4,6(a5)
    800024b0:	00a79023          	sh	a0,0(a5)
    800024b4:	ffd6869b          	addiw	a3,a3,-3
    800024b8:	00476713          	ori	a4,a4,4
    800024bc:	00d78123          	sb	a3,2(a5)
    800024c0:	00e78323          	sb	a4,6(a5)
    800024c4:	00813083          	ld	ra,8(sp)
    800024c8:	01010113          	addi	sp,sp,16
    800024cc:	00008067          	ret

00000000800024d0 <cpu_interrupt>:
    800024d0:	ff010113          	addi	sp,sp,-16
    800024d4:	00113423          	sd	ra,8(sp)
    800024d8:	00813023          	sd	s0,0(sp)
    800024dc:	1f4000ef          	jal	ra,800026d0 <ppu_generates_nmi>
    800024e0:	00051a63          	bnez	a0,800024f4 <cpu_interrupt+0x24>
    800024e4:	00813083          	ld	ra,8(sp)
    800024e8:	00013403          	ld	s0,0(sp)
    800024ec:	01010113          	addi	sp,sp,16
    800024f0:	00008067          	ret
    800024f4:	00162417          	auipc	s0,0x162
    800024f8:	ea440413          	addi	s0,s0,-348 # 80164398 <cpu>
    800024fc:	00644783          	lbu	a5,6(s0)
    80002500:	00500593          	li	a1,5
    80002504:	00162517          	auipc	a0,0x162
    80002508:	e9a50513          	addi	a0,a0,-358 # 8016439e <cpu+0x6>
    8000250c:	0047e793          	ori	a5,a5,4
    80002510:	00f40323          	sb	a5,6(s0)
    80002514:	4ac010ef          	jal	ra,800039c0 <common_unset_bitb>
    80002518:	00244503          	lbu	a0,2(s0)
    8000251c:	00045583          	lhu	a1,0(s0)
    80002520:	0ff50513          	addi	a0,a0,255
    80002524:	c89fd0ef          	jal	ra,800001ac <memory_writew>
    80002528:	00244783          	lbu	a5,2(s0)
    8000252c:	00644583          	lbu	a1,6(s0)
    80002530:	ffe7851b          	addiw	a0,a5,-2
    80002534:	0ff57513          	andi	a0,a0,255
    80002538:	1005051b          	addiw	a0,a0,256
    8000253c:	03051513          	slli	a0,a0,0x30
    80002540:	ffd7879b          	addiw	a5,a5,-3
    80002544:	03055513          	srli	a0,a0,0x30
    80002548:	00f40123          	sb	a5,2(s0)
    8000254c:	b11fd0ef          	jal	ra,8000005c <memory_writeb>
    80002550:	00010537          	lui	a0,0x10
    80002554:	ffa50513          	addi	a0,a0,-6 # fffa <_entry_offset+0xfffa>
    80002558:	c09fd0ef          	jal	ra,80000160 <memory_readw>
    8000255c:	00813083          	ld	ra,8(sp)
    80002560:	00a41023          	sh	a0,0(s0)
    80002564:	00013403          	ld	s0,0(sp)
    80002568:	01010113          	addi	sp,sp,16
    8000256c:	00008067          	ret

0000000080002570 <cpu_clock>:
    80002570:	00162517          	auipc	a0,0x162
    80002574:	df053503          	ld	a0,-528(a0) # 80164360 <cpu_cycles>
    80002578:	00008067          	ret

000000008000257c <cpu_run>:
    8000257c:	fb010113          	addi	sp,sp,-80
    80002580:	04813023          	sd	s0,64(sp)
    80002584:	04113423          	sd	ra,72(sp)
    80002588:	00300413          	li	s0,3
    8000258c:	02913c23          	sd	s1,56(sp)
    80002590:	03213823          	sd	s2,48(sp)
    80002594:	03313423          	sd	s3,40(sp)
    80002598:	03413023          	sd	s4,32(sp)
    8000259c:	01513c23          	sd	s5,24(sp)
    800025a0:	01613823          	sd	s6,16(sp)
    800025a4:	01713423          	sd	s7,8(sp)
    800025a8:	00200793          	li	a5,2
    800025ac:	02854433          	div	s0,a0,s0
    800025b0:	0aa7d863          	bge	a5,a0,80002660 <cpu_run+0xe4>
    800025b4:	00162997          	auipc	s3,0x162
    800025b8:	de498993          	addi	s3,s3,-540 # 80164398 <cpu>
    800025bc:	00162497          	auipc	s1,0x162
    800025c0:	dac48493          	addi	s1,s1,-596 # 80164368 <op_code>
    800025c4:	0000eb17          	auipc	s6,0xe
    800025c8:	4dcb0b13          	addi	s6,s6,1244 # 80010aa0 <cpu_op_address_mode>
    800025cc:	0000fa97          	auipc	s5,0xf
    800025d0:	cd4a8a93          	addi	s5,s5,-812 # 800112a0 <cpu_op_cycles>
    800025d4:	0016aa17          	auipc	s4,0x16a
    800025d8:	dcca0a13          	addi	s4,s4,-564 # 8016c3a0 <op_cycles>
    800025dc:	00162917          	auipc	s2,0x162
    800025e0:	d8490913          	addi	s2,s2,-636 # 80164360 <cpu_cycles>
    800025e4:	0000fb97          	auipc	s7,0xf
    800025e8:	0bcb8b93          	addi	s7,s7,188 # 800116a0 <cpu_op_handler>
    800025ec:	0009d503          	lhu	a0,0(s3)
    800025f0:	0015079b          	addiw	a5,a0,1
    800025f4:	00f99023          	sh	a5,0(s3)
    800025f8:	a19fd0ef          	jal	ra,80000010 <memory_readb>
    800025fc:	00351793          	slli	a5,a0,0x3
    80002600:	00fb07b3          	add	a5,s6,a5
    80002604:	0007b783          	ld	a5,0(a5)
    80002608:	00a48023          	sb	a0,0(s1)
    8000260c:	0005051b          	sext.w	a0,a0
    80002610:	02078063          	beqz	a5,80002630 <cpu_run+0xb4>
    80002614:	000780e7          	jalr	a5
    80002618:	0004c783          	lbu	a5,0(s1)
    8000261c:	00379793          	slli	a5,a5,0x3
    80002620:	00fb87b3          	add	a5,s7,a5
    80002624:	0007b783          	ld	a5,0(a5)
    80002628:	000780e7          	jalr	a5
    8000262c:	0004c503          	lbu	a0,0(s1)
    80002630:	00251513          	slli	a0,a0,0x2
    80002634:	00aa8533          	add	a0,s5,a0
    80002638:	000a2683          	lw	a3,0(s4)
    8000263c:	00052783          	lw	a5,0(a0)
    80002640:	00093703          	ld	a4,0(s2)
    80002644:	0016a617          	auipc	a2,0x16a
    80002648:	d4062e23          	sw	zero,-676(a2) # 8016c3a0 <op_cycles>
    8000264c:	00d787bb          	addw	a5,a5,a3
    80002650:	40f70733          	sub	a4,a4,a5
    80002654:	40f40433          	sub	s0,s0,a5
    80002658:	00e93023          	sd	a4,0(s2)
    8000265c:	f88048e3          	bgtz	s0,800025ec <cpu_run+0x70>
    80002660:	04813083          	ld	ra,72(sp)
    80002664:	04013403          	ld	s0,64(sp)
    80002668:	03813483          	ld	s1,56(sp)
    8000266c:	03013903          	ld	s2,48(sp)
    80002670:	02813983          	ld	s3,40(sp)
    80002674:	02013a03          	ld	s4,32(sp)
    80002678:	01813a83          	ld	s5,24(sp)
    8000267c:	01013b03          	ld	s6,16(sp)
    80002680:	00813b83          	ld	s7,8(sp)
    80002684:	05010113          	addi	sp,sp,80
    80002688:	00008067          	ret

000000008000268c <ppu_get_real_ram_address.part.0>:
    8000268c:	00004737          	lui	a4,0x4
    80002690:	f0070693          	addi	a3,a4,-256 # 3f00 <_entry_offset+0x3f00>
    80002694:	01357793          	andi	a5,a0,19
    80002698:	00d7e7b3          	or	a5,a5,a3
    8000269c:	01f57513          	andi	a0,a0,31
    800026a0:	0107979b          	slliw	a5,a5,0x10
    800026a4:	00d56533          	or	a0,a0,a3
    800026a8:	03051513          	slli	a0,a0,0x30
    800026ac:	4107d79b          	sraiw	a5,a5,0x10
    800026b0:	f1070713          	addi	a4,a4,-240
    800026b4:	03055513          	srli	a0,a0,0x30
    800026b8:	00e78463          	beq	a5,a4,800026c0 <ppu_get_real_ram_address.part.0+0x34>
    800026bc:	00008067          	ret
    800026c0:	ff05051b          	addiw	a0,a0,-16
    800026c4:	03051513          	slli	a0,a0,0x30
    800026c8:	03055513          	srli	a0,a0,0x30
    800026cc:	00008067          	ret

00000000800026d0 <ppu_generates_nmi>:
    800026d0:	00700593          	li	a1,7
    800026d4:	0016a517          	auipc	a0,0x16a
    800026d8:	cd454503          	lbu	a0,-812(a0) # 8016c3a8 <ppu>
    800026dc:	2b80106f          	j	80003994 <common_bit_set>

00000000800026e0 <ppu_ram_read>:
    800026e0:	00004737          	lui	a4,0x4
    800026e4:	eff70693          	addi	a3,a4,-257 # 3eff <_entry_offset+0x3eff>
    800026e8:	00050793          	mv	a5,a0
    800026ec:	00a6ec63          	bltu	a3,a0,80002704 <ppu_ram_read+0x24>
    800026f0:	0000f517          	auipc	a0,0xf
    800026f4:	7b050513          	addi	a0,a0,1968 # 80011ea0 <PPU_RAM>
    800026f8:	00f507b3          	add	a5,a0,a5
    800026fc:	0007c503          	lbu	a0,0(a5)
    80002700:	00008067          	ret
    80002704:	02e56063          	bltu	a0,a4,80002724 <ppu_ram_read+0x44>
    80002708:	000107b7          	lui	a5,0x10
    8000270c:	0000f517          	auipc	a0,0xf
    80002710:	79450513          	addi	a0,a0,1940 # 80011ea0 <PPU_RAM>
    80002714:	fff78793          	addi	a5,a5,-1 # ffff <_entry_offset+0xffff>
    80002718:	00f507b3          	add	a5,a0,a5
    8000271c:	0007c503          	lbu	a0,0(a5)
    80002720:	00008067          	ret
    80002724:	ff010113          	addi	sp,sp,-16
    80002728:	00113423          	sd	ra,8(sp)
    8000272c:	f61ff0ef          	jal	ra,8000268c <ppu_get_real_ram_address.part.0>
    80002730:	00813083          	ld	ra,8(sp)
    80002734:	0005079b          	sext.w	a5,a0
    80002738:	0000f517          	auipc	a0,0xf
    8000273c:	76850513          	addi	a0,a0,1896 # 80011ea0 <PPU_RAM>
    80002740:	00f507b3          	add	a5,a0,a5
    80002744:	0007c503          	lbu	a0,0(a5)
    80002748:	01010113          	addi	sp,sp,16
    8000274c:	00008067          	ret

0000000080002750 <ppu_draw_background_scanline>:
    80002750:	f5010113          	addi	sp,sp,-176
    80002754:	05a13823          	sd	s10,80(sp)
    80002758:	0016ad17          	auipc	s10,0x16a
    8000275c:	c50d0d13          	addi	s10,s10,-944 # 8016c3a8 <ppu>
    80002760:	00050793          	mv	a5,a0
    80002764:	001d4503          	lbu	a0,1(s10)
    80002768:	00100593          	li	a1,1
    8000276c:	09213823          	sd	s2,144(sp)
    80002770:	09313423          	sd	s3,136(sp)
    80002774:	07613823          	sd	s6,112(sp)
    80002778:	07713423          	sd	s7,104(sp)
    8000277c:	05913c23          	sd	s9,88(sp)
    80002780:	02f13823          	sd	a5,48(sp)
    80002784:	0a113423          	sd	ra,168(sp)
    80002788:	0a813023          	sd	s0,160(sp)
    8000278c:	08913c23          	sd	s1,152(sp)
    80002790:	09413023          	sd	s4,128(sp)
    80002794:	07513c23          	sd	s5,120(sp)
    80002798:	07813023          	sd	s8,96(sp)
    8000279c:	05b13423          	sd	s11,72(sp)
    800027a0:	1f4010ef          	jal	ra,80003994 <common_bit_set>
    800027a4:	00154993          	xori	s3,a0,1
    800027a8:	000047b7          	lui	a5,0x4
    800027ac:	0ff9f913          	andi	s2,s3,255
    800027b0:	00004bb7          	lui	s7,0x4
    800027b4:	f007879b          	addiw	a5,a5,-256
    800027b8:	00010b37          	lui	s6,0x10
    800027bc:	00090993          	mv	s3,s2
    800027c0:	effb8c93          	addi	s9,s7,-257 # 3eff <_entry_offset+0x3eff>
    800027c4:	00391913          	slli	s2,s2,0x3
    800027c8:	02f12223          	sw	a5,36(sp)
    800027cc:	fffb0b13          	addi	s6,s6,-1 # ffff <_entry_offset+0xffff>
    800027d0:	03013703          	ld	a4,48(sp)
    800027d4:	0009079b          	sext.w	a5,s2
    800027d8:	20071c63          	bnez	a4,800029f0 <ppu_draw_background_scanline+0x2a0>
    800027dc:	000d4403          	lbu	s0,0(s10)
    800027e0:	020d2503          	lw	a0,32(s10)
    800027e4:	00004c17          	auipc	s8,0x4
    800027e8:	dfcc0c13          	addi	s8,s8,-516 # 800065e0 <ppu_base_nametable_addresses>
    800027ec:	00347793          	andi	a5,s0,3
    800027f0:	00179793          	slli	a5,a5,0x1
    800027f4:	00fc07b3          	add	a5,s8,a5
    800027f8:	0007d783          	lhu	a5,0(a5) # 4000 <_entry_offset+0x4000>
    800027fc:	4035551b          	sraiw	a0,a0,0x3
    80002800:	0055151b          	slliw	a0,a0,0x5
    80002804:	00f5053b          	addw	a0,a0,a5
    80002808:	0135053b          	addw	a0,a0,s3
    8000280c:	03051513          	slli	a0,a0,0x30
    80002810:	03055513          	srli	a0,a0,0x30
    80002814:	00013423          	sd	zero,8(sp)
    80002818:	00013023          	sd	zero,0(sp)
    8000281c:	0005071b          	sext.w	a4,a0
    80002820:	00070793          	mv	a5,a4
    80002824:	22ace263          	bltu	s9,a0,80002a48 <ppu_draw_background_scanline+0x2f8>
    80002828:	0000f497          	auipc	s1,0xf
    8000282c:	67848493          	addi	s1,s1,1656 # 80011ea0 <PPU_RAM>
    80002830:	00f487b3          	add	a5,s1,a5
    80002834:	00040513          	mv	a0,s0
    80002838:	00400593          	li	a1,4
    8000283c:	0007c403          	lbu	s0,0(a5)
    80002840:	154010ef          	jal	ra,80003994 <common_bit_set>
    80002844:	020d2703          	lw	a4,32(s10)
    80002848:	00a037b3          	snez	a5,a0
    8000284c:	0044141b          	slliw	s0,s0,0x4
    80002850:	00777513          	andi	a0,a4,7
    80002854:	00c79793          	slli	a5,a5,0xc
    80002858:	00a4053b          	addw	a0,s0,a0
    8000285c:	00f5053b          	addw	a0,a0,a5
    80002860:	03051793          	slli	a5,a0,0x30
    80002864:	0307d793          	srli	a5,a5,0x30
    80002868:	0085051b          	addiw	a0,a0,8
    8000286c:	00f487b3          	add	a5,s1,a5
    80002870:	0007c783          	lbu	a5,0(a5)
    80002874:	00a48533          	add	a0,s1,a0
    80002878:	00054403          	lbu	s0,0(a0)
    8000287c:	00879793          	slli	a5,a5,0x8
    80002880:	4029da9b          	sraiw	s5,s3,0x2
    80002884:	00f40433          	add	s0,s0,a5
    80002888:	030a9713          	slli	a4,s5,0x30
    8000288c:	0029f793          	andi	a5,s3,2
    80002890:	03075713          	srli	a4,a4,0x30
    80002894:	0007879b          	sext.w	a5,a5
    80002898:	00e13823          	sd	a4,16(sp)
    8000289c:	00341413          	slli	s0,s0,0x3
    800028a0:	00000d93          	li	s11,0
    800028a4:	00093a17          	auipc	s4,0x93
    800028a8:	6fca0a13          	addi	s4,s4,1788 # 80095fa0 <ppu_l_h_addition_table>
    800028ac:	00f13c23          	sd	a5,24(sp)
    800028b0:	0ac0006f          	j	8000295c <ppu_draw_background_scanline+0x20c>
    800028b4:	00f487b3          	add	a5,s1,a5
    800028b8:	00f00513          	li	a0,15
    800028bc:	0007c783          	lbu	a5,0(a5)
    800028c0:	00c55463          	bge	a0,a2,800028c8 <ppu_draw_background_scanline+0x178>
    800028c4:	0047d793          	srli	a5,a5,0x4
    800028c8:	01813703          	ld	a4,24(sp)
    800028cc:	00070463          	beqz	a4,800028d4 <ppu_draw_background_scanline+0x184>
    800028d0:	0027d793          	srli	a5,a5,0x2
    800028d4:	0037f513          	andi	a0,a5,3
    800028d8:	02412783          	lw	a5,36(sp)
    800028dc:	0025151b          	slliw	a0,a0,0x2
    800028e0:	000b0613          	mv	a2,s6
    800028e4:	015787bb          	addw	a5,a5,s5
    800028e8:	00f5053b          	addw	a0,a0,a5
    800028ec:	03051513          	slli	a0,a0,0x30
    800028f0:	03055513          	srli	a0,a0,0x30
    800028f4:	01757a63          	bgeu	a0,s7,80002908 <ppu_draw_background_scanline+0x1b8>
    800028f8:	02b13423          	sd	a1,40(sp)
    800028fc:	d91ff0ef          	jal	ra,8000268c <ppu_get_real_ram_address.part.0>
    80002900:	02813583          	ld	a1,40(sp)
    80002904:	0005061b          	sext.w	a2,a0
    80002908:	012d88bb          	addw	a7,s11,s2
    8000290c:	00589793          	slli	a5,a7,0x5
    80002910:	008d4303          	lbu	t1,8(s10)
    80002914:	411787b3          	sub	a5,a5,a7
    80002918:	00813703          	ld	a4,8(sp)
    8000291c:	00c48633          	add	a2,s1,a2
    80002920:	00088513          	mv	a0,a7
    80002924:	00064603          	lbu	a2,0(a2)
    80002928:	00379893          	slli	a7,a5,0x3
    8000292c:	00113797          	auipc	a5,0x113
    80002930:	67478793          	addi	a5,a5,1652 # 80115fa0 <ppu_screen_background>
    80002934:	011787b3          	add	a5,a5,a7
    80002938:	4065053b          	subw	a0,a0,t1
    8000293c:	00b787b3          	add	a5,a5,a1
    80002940:	00e5053b          	addw	a0,a0,a4
    80002944:	0015859b          	addiw	a1,a1,1
    80002948:	01578023          	sb	s5,0(a5)
    8000294c:	401000ef          	jal	ra,8000354c <draw>
    80002950:	001d8d93          	addi	s11,s11,1
    80002954:	00800793          	li	a5,8
    80002958:	0afd8263          	beq	s11,a5,800029fc <ppu_draw_background_scanline+0x2ac>
    8000295c:	008d87b3          	add	a5,s11,s0
    80002960:	00fa07b3          	add	a5,s4,a5
    80002964:	0007ca83          	lbu	s5,0(a5)
    80002968:	fe0a84e3          	beqz	s5,80002950 <ppu_draw_background_scanline+0x200>
    8000296c:	000d4783          	lbu	a5,0(s10)
    80002970:	020d2583          	lw	a1,32(s10)
    80002974:	01013703          	ld	a4,16(sp)
    80002978:	0037f793          	andi	a5,a5,3
    8000297c:	00179793          	slli	a5,a5,0x1
    80002980:	00fc07b3          	add	a5,s8,a5
    80002984:	0007d783          	lhu	a5,0(a5)
    80002988:	4055d51b          	sraiw	a0,a1,0x5
    8000298c:	0035151b          	slliw	a0,a0,0x3
    80002990:	00f5053b          	addw	a0,a0,a5
    80002994:	3c05051b          	addiw	a0,a0,960
    80002998:	00e5053b          	addw	a0,a0,a4
    8000299c:	00013703          	ld	a4,0(sp)
    800029a0:	41f5d61b          	sraiw	a2,a1,0x1f
    800029a4:	01b6579b          	srliw	a5,a2,0x1b
    800029a8:	00e5053b          	addw	a0,a0,a4
    800029ac:	03051513          	slli	a0,a0,0x30
    800029b0:	00b7863b          	addw	a2,a5,a1
    800029b4:	03055513          	srli	a0,a0,0x30
    800029b8:	01f67613          	andi	a2,a2,31
    800029bc:	0005089b          	sext.w	a7,a0
    800029c0:	40f6063b          	subw	a2,a2,a5
    800029c4:	00088793          	mv	a5,a7
    800029c8:	eeacf6e3          	bgeu	s9,a0,800028b4 <ppu_draw_background_scanline+0x164>
    800029cc:	000b0793          	mv	a5,s6
    800029d0:	ef78f2e3          	bgeu	a7,s7,800028b4 <ppu_draw_background_scanline+0x164>
    800029d4:	02c13c23          	sd	a2,56(sp)
    800029d8:	02b13423          	sd	a1,40(sp)
    800029dc:	cb1ff0ef          	jal	ra,8000268c <ppu_get_real_ram_address.part.0>
    800029e0:	03813603          	ld	a2,56(sp)
    800029e4:	02813583          	ld	a1,40(sp)
    800029e8:	0005079b          	sext.w	a5,a0
    800029ec:	ec9ff06f          	j	800028b4 <ppu_draw_background_scanline+0x164>
    800029f0:	008d4703          	lbu	a4,8(s10)
    800029f4:	40e787bb          	subw	a5,a5,a4
    800029f8:	06f05263          	blez	a5,80002a5c <ppu_draw_background_scanline+0x30c>
    800029fc:	0019899b          	addiw	s3,s3,1
    80002a00:	02000793          	li	a5,32
    80002a04:	0089091b          	addiw	s2,s2,8
    80002a08:	dcf994e3          	bne	s3,a5,800027d0 <ppu_draw_background_scanline+0x80>
    80002a0c:	0a813083          	ld	ra,168(sp)
    80002a10:	0a013403          	ld	s0,160(sp)
    80002a14:	09813483          	ld	s1,152(sp)
    80002a18:	09013903          	ld	s2,144(sp)
    80002a1c:	08813983          	ld	s3,136(sp)
    80002a20:	08013a03          	ld	s4,128(sp)
    80002a24:	07813a83          	ld	s5,120(sp)
    80002a28:	07013b03          	ld	s6,112(sp)
    80002a2c:	06813b83          	ld	s7,104(sp)
    80002a30:	06013c03          	ld	s8,96(sp)
    80002a34:	05813c83          	ld	s9,88(sp)
    80002a38:	05013d03          	ld	s10,80(sp)
    80002a3c:	04813d83          	ld	s11,72(sp)
    80002a40:	0b010113          	addi	sp,sp,176
    80002a44:	00008067          	ret
    80002a48:	000b0793          	mv	a5,s6
    80002a4c:	dd777ee3          	bgeu	a4,s7,80002828 <ppu_draw_background_scanline+0xd8>
    80002a50:	c3dff0ef          	jal	ra,8000268c <ppu_get_real_ram_address.part.0>
    80002a54:	0005079b          	sext.w	a5,a0
    80002a58:	dd1ff06f          	j	80002828 <ppu_draw_background_scanline+0xd8>
    80002a5c:	000d4403          	lbu	s0,0(s10)
    80002a60:	020d2503          	lw	a0,32(s10)
    80002a64:	00004c17          	auipc	s8,0x4
    80002a68:	b7cc0c13          	addi	s8,s8,-1156 # 800065e0 <ppu_base_nametable_addresses>
    80002a6c:	00347793          	andi	a5,s0,3
    80002a70:	00179793          	slli	a5,a5,0x1
    80002a74:	00fc07b3          	add	a5,s8,a5
    80002a78:	0007d783          	lhu	a5,0(a5)
    80002a7c:	4035551b          	sraiw	a0,a0,0x3
    80002a80:	0055151b          	slliw	a0,a0,0x5
    80002a84:	00f5053b          	addw	a0,a0,a5
    80002a88:	4005051b          	addiw	a0,a0,1024
    80002a8c:	10000793          	li	a5,256
    80002a90:	0135053b          	addw	a0,a0,s3
    80002a94:	03051513          	slli	a0,a0,0x30
    80002a98:	00f13423          	sd	a5,8(sp)
    80002a9c:	40000793          	li	a5,1024
    80002aa0:	03055513          	srli	a0,a0,0x30
    80002aa4:	00f13023          	sd	a5,0(sp)
    80002aa8:	d75ff06f          	j	8000281c <ppu_draw_background_scanline+0xcc>

0000000080002aac <ppu_draw_sprite_scanline>:
    80002aac:	f7010113          	addi	sp,sp,-144
    80002ab0:	000047b7          	lui	a5,0x4
    80002ab4:	f107879b          	addiw	a5,a5,-240
    80002ab8:	03913c23          	sd	s9,56(sp)
    80002abc:	00010cb7          	lui	s9,0x10
    80002ac0:	00f12e23          	sw	a5,28(sp)
    80002ac4:	fffc8793          	addi	a5,s9,-1 # ffff <_entry_offset+0xffff>
    80002ac8:	08813023          	sd	s0,128(sp)
    80002acc:	05613823          	sd	s6,80(sp)
    80002ad0:	03b13423          	sd	s11,40(sp)
    80002ad4:	08113423          	sd	ra,136(sp)
    80002ad8:	06913c23          	sd	s1,120(sp)
    80002adc:	07213823          	sd	s2,112(sp)
    80002ae0:	07313423          	sd	s3,104(sp)
    80002ae4:	07413023          	sd	s4,96(sp)
    80002ae8:	05513c23          	sd	s5,88(sp)
    80002aec:	05713423          	sd	s7,72(sp)
    80002af0:	05813023          	sd	s8,64(sp)
    80002af4:	03a13823          	sd	s10,48(sp)
    80002af8:	00013d97          	auipc	s11,0x13
    80002afc:	3a8d8d93          	addi	s11,s11,936 # 80015ea0 <PPU_SPRRAM>
    80002b00:	00013423          	sd	zero,8(sp)
    80002b04:	0016a417          	auipc	s0,0x16a
    80002b08:	8a440413          	addi	s0,s0,-1884 # 8016c3a8 <ppu>
    80002b0c:	0000fb17          	auipc	s6,0xf
    80002b10:	394b0b13          	addi	s6,s6,916 # 80011ea0 <PPU_RAM>
    80002b14:	00f13023          	sd	a5,0(sp)
    80002b18:	0140006f          	j	80002b2c <ppu_draw_sprite_scanline+0x80>
    80002b1c:	004d8d93          	addi	s11,s11,4
    80002b20:	00013797          	auipc	a5,0x13
    80002b24:	48078793          	addi	a5,a5,1152 # 80015fa0 <ppu_l_h_addition_flip_table>
    80002b28:	23b78263          	beq	a5,s11,80002d4c <ppu_draw_sprite_scanline+0x2a0>
    80002b2c:	000dca03          	lbu	s4,0(s11)
    80002b30:	02042783          	lw	a5,32(s0)
    80002b34:	000a0913          	mv	s2,s4
    80002b38:	ff47c2e3          	blt	a5,s4,80002b1c <ppu_draw_sprite_scanline+0x70>
    80002b3c:	00044503          	lbu	a0,0(s0)
    80002b40:	00500593          	li	a1,5
    80002b44:	003dc483          	lbu	s1,3(s11)
    80002b48:	64d000ef          	jal	ra,80003994 <common_bit_set>
    80002b4c:	01000793          	li	a5,16
    80002b50:	00051463          	bnez	a0,80002b58 <ppu_draw_sprite_scanline+0xac>
    80002b54:	00800793          	li	a5,8
    80002b58:	02042703          	lw	a4,32(s0)
    80002b5c:	00f9093b          	addw	s2,s2,a5
    80002b60:	fae94ee3          	blt	s2,a4,80002b1c <ppu_draw_sprite_scanline+0x70>
    80002b64:	00813783          	ld	a5,8(sp)
    80002b68:	0017879b          	addiw	a5,a5,1
    80002b6c:	00078713          	mv	a4,a5
    80002b70:	00f13423          	sd	a5,8(sp)
    80002b74:	00800793          	li	a5,8
    80002b78:	1ae7ce63          	blt	a5,a4,80002d34 <ppu_draw_sprite_scanline+0x288>
    80002b7c:	00044503          	lbu	a0,0(s0)
    80002b80:	00300593          	li	a1,3
    80002b84:	002dc983          	lbu	s3,2(s11)
    80002b88:	60d000ef          	jal	ra,80003994 <common_bit_set>
    80002b8c:	001dc703          	lbu	a4,1(s11)
    80002b90:	02042783          	lw	a5,32(s0)
    80002b94:	00a03533          	snez	a0,a0
    80002b98:	00c51513          	slli	a0,a0,0xc
    80002b9c:	0047171b          	slliw	a4,a4,0x4
    80002ba0:	0189991b          	slliw	s2,s3,0x18
    80002ba4:	00a7073b          	addw	a4,a4,a0
    80002ba8:	03071713          	slli	a4,a4,0x30
    80002bac:	0077f613          	andi	a2,a5,7
    80002bb0:	4189591b          	sraiw	s2,s2,0x18
    80002bb4:	0409f993          	andi	s3,s3,64
    80002bb8:	03075713          	srli	a4,a4,0x30
    80002bbc:	00060793          	mv	a5,a2
    80002bc0:	00095a63          	bgez	s2,80002bd4 <ppu_draw_sprite_scanline+0x128>
    80002bc4:	00700593          	li	a1,7
    80002bc8:	40c587bb          	subw	a5,a1,a2
    80002bcc:	03079793          	slli	a5,a5,0x30
    80002bd0:	0307d793          	srli	a5,a5,0x30
    80002bd4:	00e787bb          	addw	a5,a5,a4
    80002bd8:	03079793          	slli	a5,a5,0x30
    80002bdc:	0307d793          	srli	a5,a5,0x30
    80002be0:	0087871b          	addiw	a4,a5,8
    80002be4:	03071713          	slli	a4,a4,0x30
    80002be8:	00fb07b3          	add	a5,s6,a5
    80002bec:	03075713          	srli	a4,a4,0x30
    80002bf0:	002dc903          	lbu	s2,2(s11)
    80002bf4:	0007c783          	lbu	a5,0(a5)
    80002bf8:	00eb0733          	add	a4,s6,a4
    80002bfc:	00074703          	lbu	a4,0(a4)
    80002c00:	01c12683          	lw	a3,28(sp)
    80002c04:	00397913          	andi	s2,s2,3
    80002c08:	00879793          	slli	a5,a5,0x8
    80002c0c:	00e787b3          	add	a5,a5,a4
    80002c10:	0029191b          	slliw	s2,s2,0x2
    80002c14:	00d9093b          	addw	s2,s2,a3
    80002c18:	00379d13          	slli	s10,a5,0x3
    80002c1c:	00ca07b3          	add	a5,s4,a2
    80002c20:	00ca0abb          	addw	s5,s4,a2
    80002c24:	03091913          	slli	s2,s2,0x30
    80002c28:	00f13823          	sd	a5,16(sp)
    80002c2c:	00048c9b          	sext.w	s9,s1
    80002c30:	03095913          	srli	s2,s2,0x30
    80002c34:	00848493          	addi	s1,s1,8
    80002c38:	00013b97          	auipc	s7,0x13
    80002c3c:	368b8b93          	addi	s7,s7,872 # 80015fa0 <ppu_l_h_addition_flip_table>
    80002c40:	001a8a9b          	addiw	s5,s5,1
    80002c44:	08098663          	beqz	s3,80002cd0 <ppu_draw_sprite_scanline+0x224>
    80002c48:	017d0633          	add	a2,s10,s7
    80002c4c:	00064c03          	lbu	s8,0(a2)
    80002c50:	060c0863          	beqz	s8,80002cc0 <ppu_draw_sprite_scanline+0x214>
    80002c54:	012c053b          	addw	a0,s8,s2
    80002c58:	03051513          	slli	a0,a0,0x30
    80002c5c:	03055513          	srli	a0,a0,0x30
    80002c60:	000045b7          	lui	a1,0x4
    80002c64:	00013603          	ld	a2,0(sp)
    80002c68:	000c8a1b          	sext.w	s4,s9
    80002c6c:	00b57663          	bgeu	a0,a1,80002c78 <ppu_draw_sprite_scanline+0x1cc>
    80002c70:	a1dff0ef          	jal	ra,8000268c <ppu_get_real_ram_address.part.0>
    80002c74:	0005061b          	sext.w	a2,a0
    80002c78:	00cb0633          	add	a2,s6,a2
    80002c7c:	00064603          	lbu	a2,0(a2)
    80002c80:	000a8593          	mv	a1,s5
    80002c84:	000a0513          	mv	a0,s4
    80002c88:	0c5000ef          	jal	ra,8000354c <draw>
    80002c8c:	00144503          	lbu	a0,1(s0)
    80002c90:	00300593          	li	a1,3
    80002c94:	501000ef          	jal	ra,80003994 <common_bit_set>
    80002c98:	02050463          	beqz	a0,80002cc0 <ppu_draw_sprite_scanline+0x214>
    80002c9c:	00161897          	auipc	a7,0x161
    80002ca0:	6cf88893          	addi	a7,a7,1743 # 8016436b <ppu_sprite_hit_occured>
    80002ca4:	0008c603          	lbu	a2,0(a7)
    80002ca8:	00061c63          	bnez	a2,80002cc0 <ppu_draw_sprite_scanline+0x214>
    80002cac:	00013797          	auipc	a5,0x13
    80002cb0:	1f478793          	addi	a5,a5,500 # 80015ea0 <PPU_SPRRAM>
    80002cb4:	0007861b          	sext.w	a2,a5
    80002cb8:	000d859b          	sext.w	a1,s11
    80002cbc:	02b60463          	beq	a2,a1,80002ce4 <ppu_draw_sprite_scanline+0x238>
    80002cc0:	001c8c9b          	addiw	s9,s9,1
    80002cc4:	001d0d13          	addi	s10,s10,1
    80002cc8:	e5948ae3          	beq	s1,s9,80002b1c <ppu_draw_sprite_scanline+0x70>
    80002ccc:	f6099ee3          	bnez	s3,80002c48 <ppu_draw_sprite_scanline+0x19c>
    80002cd0:	00093797          	auipc	a5,0x93
    80002cd4:	2d078793          	addi	a5,a5,720 # 80095fa0 <ppu_l_h_addition_table>
    80002cd8:	00fd0633          	add	a2,s10,a5
    80002cdc:	00064c03          	lbu	s8,0(a2)
    80002ce0:	f71ff06f          	j	80002c50 <ppu_draw_sprite_scanline+0x1a4>
    80002ce4:	005a1613          	slli	a2,s4,0x5
    80002ce8:	41460a33          	sub	s4,a2,s4
    80002cec:	01013783          	ld	a5,16(sp)
    80002cf0:	003a1a13          	slli	s4,s4,0x3
    80002cf4:	00113617          	auipc	a2,0x113
    80002cf8:	2ac60613          	addi	a2,a2,684 # 80115fa0 <ppu_screen_background>
    80002cfc:	01460633          	add	a2,a2,s4
    80002d00:	00f60633          	add	a2,a2,a5
    80002d04:	00064603          	lbu	a2,0(a2)
    80002d08:	fb861ce3          	bne	a2,s8,80002cc0 <ppu_draw_sprite_scanline+0x214>
    80002d0c:	00100613          	li	a2,1
    80002d10:	00600593          	li	a1,6
    80002d14:	00169517          	auipc	a0,0x169
    80002d18:	69650513          	addi	a0,a0,1686 # 8016c3aa <ppu+0x2>
    80002d1c:	4c1000ef          	jal	ra,800039dc <common_modify_bitb>
    80002d20:	00100613          	li	a2,1
    80002d24:	00161897          	auipc	a7,0x161
    80002d28:	64788893          	addi	a7,a7,1607 # 8016436b <ppu_sprite_hit_occured>
    80002d2c:	00c88023          	sb	a2,0(a7)
    80002d30:	f91ff06f          	j	80002cc0 <ppu_draw_sprite_scanline+0x214>
    80002d34:	00100613          	li	a2,1
    80002d38:	00500593          	li	a1,5
    80002d3c:	00169517          	auipc	a0,0x169
    80002d40:	66e50513          	addi	a0,a0,1646 # 8016c3aa <ppu+0x2>
    80002d44:	499000ef          	jal	ra,800039dc <common_modify_bitb>
    80002d48:	e35ff06f          	j	80002b7c <ppu_draw_sprite_scanline+0xd0>
    80002d4c:	08813083          	ld	ra,136(sp)
    80002d50:	08013403          	ld	s0,128(sp)
    80002d54:	07813483          	ld	s1,120(sp)
    80002d58:	07013903          	ld	s2,112(sp)
    80002d5c:	06813983          	ld	s3,104(sp)
    80002d60:	06013a03          	ld	s4,96(sp)
    80002d64:	05813a83          	ld	s5,88(sp)
    80002d68:	05013b03          	ld	s6,80(sp)
    80002d6c:	04813b83          	ld	s7,72(sp)
    80002d70:	04013c03          	ld	s8,64(sp)
    80002d74:	03813c83          	ld	s9,56(sp)
    80002d78:	03013d03          	ld	s10,48(sp)
    80002d7c:	02813d83          	ld	s11,40(sp)
    80002d80:	09010113          	addi	sp,sp,144
    80002d84:	00008067          	ret

0000000080002d88 <ppu_cycle>:
    80002d88:	ff010113          	addi	sp,sp,-16
    80002d8c:	00813023          	sd	s0,0(sp)
    80002d90:	00169417          	auipc	s0,0x169
    80002d94:	61840413          	addi	s0,s0,1560 # 8016c3a8 <ppu>
    80002d98:	01044783          	lbu	a5,16(s0)
    80002d9c:	00113423          	sd	ra,8(sp)
    80002da0:	06078063          	beqz	a5,80002e00 <ppu_cycle+0x78>
    80002da4:	10000513          	li	a0,256
    80002da8:	fd4ff0ef          	jal	ra,8000257c <cpu_run>
    80002dac:	02042783          	lw	a5,32(s0)
    80002db0:	0ef00713          	li	a4,239
    80002db4:	0017869b          	addiw	a3,a5,1
    80002db8:	02d42023          	sw	a3,32(s0)
    80002dbc:	06d75c63          	bge	a4,a3,80002e34 <ppu_cycle+0xac>
    80002dc0:	04500513          	li	a0,69
    80002dc4:	fb8ff0ef          	jal	ra,8000257c <cpu_run>
    80002dc8:	02042703          	lw	a4,32(s0)
    80002dcc:	0ef00793          	li	a5,239
    80002dd0:	08e7dc63          	bge	a5,a4,80002e68 <ppu_cycle+0xe0>
    80002dd4:	01000513          	li	a0,16
    80002dd8:	fa4ff0ef          	jal	ra,8000257c <cpu_run>
    80002ddc:	02042783          	lw	a5,32(s0)
    80002de0:	0f100713          	li	a4,241
    80002de4:	0ae78663          	beq	a5,a4,80002e90 <ppu_cycle+0x108>
    80002de8:	10600713          	li	a4,262
    80002dec:	0ce78e63          	beq	a5,a4,80002ec8 <ppu_cycle+0x140>
    80002df0:	00813083          	ld	ra,8(sp)
    80002df4:	00013403          	ld	s0,0(sp)
    80002df8:	01010113          	addi	sp,sp,16
    80002dfc:	00008067          	ret
    80002e00:	f70ff0ef          	jal	ra,80002570 <cpu_clock>
    80002e04:	000077b7          	lui	a5,0x7
    80002e08:	3da78793          	addi	a5,a5,986 # 73da <_entry_offset+0x73da>
    80002e0c:	f8a7fce3          	bgeu	a5,a0,80002da4 <ppu_cycle+0x1c>
    80002e10:	00100793          	li	a5,1
    80002e14:	10000513          	li	a0,256
    80002e18:	00f40823          	sb	a5,16(s0)
    80002e1c:	f60ff0ef          	jal	ra,8000257c <cpu_run>
    80002e20:	02042783          	lw	a5,32(s0)
    80002e24:	0ef00713          	li	a4,239
    80002e28:	0017869b          	addiw	a3,a5,1
    80002e2c:	02d42023          	sw	a3,32(s0)
    80002e30:	f8d748e3          	blt	a4,a3,80002dc0 <ppu_cycle+0x38>
    80002e34:	00144503          	lbu	a0,1(s0)
    80002e38:	00300593          	li	a1,3
    80002e3c:	359000ef          	jal	ra,80003994 <common_bit_set>
    80002e40:	f80500e3          	beqz	a0,80002dc0 <ppu_cycle+0x38>
    80002e44:	00000513          	li	a0,0
    80002e48:	909ff0ef          	jal	ra,80002750 <ppu_draw_background_scanline>
    80002e4c:	00100513          	li	a0,1
    80002e50:	901ff0ef          	jal	ra,80002750 <ppu_draw_background_scanline>
    80002e54:	04500513          	li	a0,69
    80002e58:	f24ff0ef          	jal	ra,8000257c <cpu_run>
    80002e5c:	02042703          	lw	a4,32(s0)
    80002e60:	0ef00793          	li	a5,239
    80002e64:	f6e7c8e3          	blt	a5,a4,80002dd4 <ppu_cycle+0x4c>
    80002e68:	00144503          	lbu	a0,1(s0)
    80002e6c:	00400593          	li	a1,4
    80002e70:	325000ef          	jal	ra,80003994 <common_bit_set>
    80002e74:	f60500e3          	beqz	a0,80002dd4 <ppu_cycle+0x4c>
    80002e78:	c35ff0ef          	jal	ra,80002aac <ppu_draw_sprite_scanline>
    80002e7c:	01000513          	li	a0,16
    80002e80:	efcff0ef          	jal	ra,8000257c <cpu_run>
    80002e84:	02042783          	lw	a5,32(s0)
    80002e88:	0f100713          	li	a4,241
    80002e8c:	f4e79ee3          	bne	a5,a4,80002de8 <ppu_cycle+0x60>
    80002e90:	00100613          	li	a2,1
    80002e94:	00700593          	li	a1,7
    80002e98:	00169517          	auipc	a0,0x169
    80002e9c:	51250513          	addi	a0,a0,1298 # 8016c3aa <ppu+0x2>
    80002ea0:	33d000ef          	jal	ra,800039dc <common_modify_bitb>
    80002ea4:	00000613          	li	a2,0
    80002ea8:	00600593          	li	a1,6
    80002eac:	00169517          	auipc	a0,0x169
    80002eb0:	4fe50513          	addi	a0,a0,1278 # 8016c3aa <ppu+0x2>
    80002eb4:	329000ef          	jal	ra,800039dc <common_modify_bitb>
    80002eb8:	00013403          	ld	s0,0(sp)
    80002ebc:	00813083          	ld	ra,8(sp)
    80002ec0:	01010113          	addi	sp,sp,16
    80002ec4:	e0cff06f          	j	800024d0 <cpu_interrupt>
    80002ec8:	fff00793          	li	a5,-1
    80002ecc:	00000613          	li	a2,0
    80002ed0:	00700593          	li	a1,7
    80002ed4:	00169517          	auipc	a0,0x169
    80002ed8:	4d650513          	addi	a0,a0,1238 # 8016c3aa <ppu+0x2>
    80002edc:	02f42023          	sw	a5,32(s0)
    80002ee0:	00161797          	auipc	a5,0x161
    80002ee4:	480785a3          	sb	zero,1163(a5) # 8016436b <ppu_sprite_hit_occured>
    80002ee8:	2f5000ef          	jal	ra,800039dc <common_modify_bitb>
    80002eec:	00013403          	ld	s0,0(sp)
    80002ef0:	00813083          	ld	ra,8(sp)
    80002ef4:	01010113          	addi	sp,sp,16
    80002ef8:	1e10006f          	j	800038d8 <fce_update_screen>

0000000080002efc <ppu_copy>:
    80002efc:	0000f797          	auipc	a5,0xf
    80002f00:	fa478793          	addi	a5,a5,-92 # 80011ea0 <PPU_RAM>
    80002f04:	ff010113          	addi	sp,sp,-16
    80002f08:	00a78533          	add	a0,a5,a0
    80002f0c:	00113423          	sd	ra,8(sp)
    80002f10:	450010ef          	jal	ra,80004360 <memcpy>
    80002f14:	00813083          	ld	ra,8(sp)
    80002f18:	00003517          	auipc	a0,0x3
    80002f1c:	df050513          	addi	a0,a0,-528 # 80005d08 <cpu_zn_flag_table+0x100>
    80002f20:	01010113          	addi	sp,sp,16
    80002f24:	48d0206f          	j	80005bb0 <printf>

0000000080002f28 <ppuio_read>:
    80002f28:	fe010113          	addi	sp,sp,-32
    80002f2c:	00813823          	sd	s0,16(sp)
    80002f30:	00169417          	auipc	s0,0x169
    80002f34:	47840413          	addi	s0,s0,1144 # 8016c3a8 <ppu>
    80002f38:	00a45783          	lhu	a5,10(s0)
    80002f3c:	000046b7          	lui	a3,0x4
    80002f40:	fff68713          	addi	a4,a3,-1 # 3fff <_entry_offset+0x3fff>
    80002f44:	00f77733          	and	a4,a4,a5
    80002f48:	00113c23          	sd	ra,24(sp)
    80002f4c:	00913423          	sd	s1,8(sp)
    80002f50:	00e41523          	sh	a4,10(s0)
    80002f54:	00757793          	andi	a5,a0,7
    80002f58:	00400613          	li	a2,4
    80002f5c:	02c78863          	beq	a5,a2,80002f8c <ppuio_read+0x64>
    80002f60:	00700613          	li	a2,7
    80002f64:	0ac78e63          	beq	a5,a2,80003020 <ppuio_read+0xf8>
    80002f68:	00200713          	li	a4,2
    80002f6c:	0ff00493          	li	s1,255
    80002f70:	04e78463          	beq	a5,a4,80002fb8 <ppuio_read+0x90>
    80002f74:	01813083          	ld	ra,24(sp)
    80002f78:	01013403          	ld	s0,16(sp)
    80002f7c:	00048513          	mv	a0,s1
    80002f80:	00813483          	ld	s1,8(sp)
    80002f84:	02010113          	addi	sp,sp,32
    80002f88:	00008067          	ret
    80002f8c:	00344703          	lbu	a4,3(s0)
    80002f90:	00013797          	auipc	a5,0x13
    80002f94:	f1078793          	addi	a5,a5,-240 # 80015ea0 <PPU_SPRRAM>
    80002f98:	01813083          	ld	ra,24(sp)
    80002f9c:	00e787b3          	add	a5,a5,a4
    80002fa0:	0007c483          	lbu	s1,0(a5)
    80002fa4:	01013403          	ld	s0,16(sp)
    80002fa8:	00048513          	mv	a0,s1
    80002fac:	00813483          	ld	s1,8(sp)
    80002fb0:	02010113          	addi	sp,sp,32
    80002fb4:	00008067          	ret
    80002fb8:	00000613          	li	a2,0
    80002fbc:	00700593          	li	a1,7
    80002fc0:	00169517          	auipc	a0,0x169
    80002fc4:	3ea50513          	addi	a0,a0,1002 # 8016c3aa <ppu+0x2>
    80002fc8:	00244483          	lbu	s1,2(s0)
    80002fcc:	211000ef          	jal	ra,800039dc <common_modify_bitb>
    80002fd0:	00169517          	auipc	a0,0x169
    80002fd4:	3da50513          	addi	a0,a0,986 # 8016c3aa <ppu+0x2>
    80002fd8:	00000613          	li	a2,0
    80002fdc:	00600593          	li	a1,6
    80002fe0:	1fd000ef          	jal	ra,800039dc <common_modify_bitb>
    80002fe4:	01813083          	ld	ra,24(sp)
    80002fe8:	01013403          	ld	s0,16(sp)
    80002fec:	00169797          	auipc	a5,0x169
    80002ff0:	3c079123          	sh	zero,962(a5) # 8016c3ae <ppu+0x6>
    80002ff4:	00169797          	auipc	a5,0x169
    80002ff8:	3c079123          	sh	zero,962(a5) # 8016c3b6 <ppu+0xe>
    80002ffc:	00161797          	auipc	a5,0x161
    80003000:	36078723          	sb	zero,878(a5) # 8016436a <ppu_addr_latch>
    80003004:	00100793          	li	a5,1
    80003008:	00161717          	auipc	a4,0x161
    8000300c:	36f700a3          	sb	a5,865(a4) # 80164369 <ppu_2007_first_read>
    80003010:	00048513          	mv	a0,s1
    80003014:	00813483          	ld	s1,8(sp)
    80003018:	02010113          	addi	sp,sp,32
    8000301c:	00008067          	ret
    80003020:	eff68693          	addi	a3,a3,-257
    80003024:	0007061b          	sext.w	a2,a4
    80003028:	04e6f663          	bgeu	a3,a4,80003074 <ppuio_read+0x14c>
    8000302c:	00070513          	mv	a0,a4
    80003030:	e5cff0ef          	jal	ra,8000268c <ppu_get_real_ram_address.part.0>
    80003034:	0005079b          	sext.w	a5,a0
    80003038:	0000f517          	auipc	a0,0xf
    8000303c:	e6850513          	addi	a0,a0,-408 # 80011ea0 <PPU_RAM>
    80003040:	00f50533          	add	a0,a0,a5
    80003044:	00054483          	lbu	s1,0(a0)
    80003048:	00161797          	auipc	a5,0x161
    8000304c:	3217c783          	lbu	a5,801(a5) # 80164369 <ppu_2007_first_read>
    80003050:	02078c63          	beqz	a5,80003088 <ppuio_read+0x160>
    80003054:	01813083          	ld	ra,24(sp)
    80003058:	01013403          	ld	s0,16(sp)
    8000305c:	00161797          	auipc	a5,0x161
    80003060:	300786a3          	sb	zero,781(a5) # 80164369 <ppu_2007_first_read>
    80003064:	00048513          	mv	a0,s1
    80003068:	00813483          	ld	s1,8(sp)
    8000306c:	02010113          	addi	sp,sp,32
    80003070:	00008067          	ret
    80003074:	0000f797          	auipc	a5,0xf
    80003078:	e2c78793          	addi	a5,a5,-468 # 80011ea0 <PPU_RAM>
    8000307c:	00c787b3          	add	a5,a5,a2
    80003080:	0007c483          	lbu	s1,0(a5)
    80003084:	fc5ff06f          	j	80003048 <ppuio_read+0x120>
    80003088:	00044503          	lbu	a0,0(s0)
    8000308c:	00200593          	li	a1,2
    80003090:	105000ef          	jal	ra,80003994 <common_bit_set>
    80003094:	02000713          	li	a4,32
    80003098:	00051463          	bnez	a0,800030a0 <ppuio_read+0x178>
    8000309c:	00100713          	li	a4,1
    800030a0:	00a45783          	lhu	a5,10(s0)
    800030a4:	00e787bb          	addw	a5,a5,a4
    800030a8:	00f41523          	sh	a5,10(s0)
    800030ac:	ec9ff06f          	j	80002f74 <ppuio_read+0x4c>

00000000800030b0 <ppuio_write>:
    800030b0:	00757513          	andi	a0,a0,7
    800030b4:	fd010113          	addi	sp,sp,-48
    800030b8:	00169797          	auipc	a5,0x169
    800030bc:	2f078793          	addi	a5,a5,752 # 8016c3a8 <ppu>
    800030c0:	00003697          	auipc	a3,0x3
    800030c4:	c5868693          	addi	a3,a3,-936 # 80005d18 <cpu_zn_flag_table+0x110>
    800030c8:	00251513          	slli	a0,a0,0x2
    800030cc:	00913c23          	sd	s1,24(sp)
    800030d0:	00d50533          	add	a0,a0,a3
    800030d4:	00a7d483          	lhu	s1,10(a5)
    800030d8:	00052703          	lw	a4,0(a0)
    800030dc:	02813023          	sd	s0,32(sp)
    800030e0:	03249413          	slli	s0,s1,0x32
    800030e4:	02113423          	sd	ra,40(sp)
    800030e8:	01213823          	sd	s2,16(sp)
    800030ec:	03245413          	srli	s0,s0,0x32
    800030f0:	00d70733          	add	a4,a4,a3
    800030f4:	00879523          	sh	s0,10(a5)
    800030f8:	00070067          	jr	a4
    800030fc:	00e7c703          	lbu	a4,14(a5)
    80003100:	12070863          	beqz	a4,80003230 <ppuio_write+0x180>
    80003104:	00b784a3          	sb	a1,9(a5)
    80003108:	00174713          	xori	a4,a4,1
    8000310c:	00e78723          	sb	a4,14(a5)
    80003110:	02813083          	ld	ra,40(sp)
    80003114:	02013403          	ld	s0,32(sp)
    80003118:	01813483          	ld	s1,24(sp)
    8000311c:	01013903          	ld	s2,16(sp)
    80003120:	03010113          	addi	sp,sp,48
    80003124:	00008067          	ret
    80003128:	0187d503          	lhu	a0,24(a5)
    8000312c:	00004737          	lui	a4,0x4
    80003130:	eff70693          	addi	a3,a4,-257 # 3eff <_entry_offset+0x3eff>
    80003134:	00a44533          	xor	a0,s0,a0
    80003138:	03051513          	slli	a0,a0,0x30
    8000313c:	03055513          	srli	a0,a0,0x30
    80003140:	0005079b          	sext.w	a5,a0
    80003144:	12a6e263          	bltu	a3,a0,80003268 <ppuio_write+0x1b8>
    80003148:	0000f917          	auipc	s2,0xf
    8000314c:	d5890913          	addi	s2,s2,-680 # 80011ea0 <PPU_RAM>
    80003150:	00f90533          	add	a0,s2,a5
    80003154:	00b50023          	sb	a1,0(a0)
    80003158:	03249793          	slli	a5,s1,0x32
    8000315c:	0004051b          	sext.w	a0,s0
    80003160:	0007d863          	bgez	a5,80003170 <ppuio_write+0xc0>
    80003164:	000047b7          	lui	a5,0x4
    80003168:	eff78793          	addi	a5,a5,-257 # 3eff <_entry_offset+0x3eff>
    8000316c:	0ea7e263          	bltu	a5,a0,80003250 <ppuio_write+0x1a0>
    80003170:	00a90933          	add	s2,s2,a0
    80003174:	00b90023          	sb	a1,0(s2)
    80003178:	02813083          	ld	ra,40(sp)
    8000317c:	02013403          	ld	s0,32(sp)
    80003180:	01813483          	ld	s1,24(sp)
    80003184:	01013903          	ld	s2,16(sp)
    80003188:	03010113          	addi	sp,sp,48
    8000318c:	00008067          	ret
    80003190:	0107c703          	lbu	a4,16(a5)
    80003194:	f6070ee3          	beqz	a4,80003110 <ppuio_write+0x60>
    80003198:	00b78023          	sb	a1,0(a5)
    8000319c:	f75ff06f          	j	80003110 <ppuio_write+0x60>
    800031a0:	0107c703          	lbu	a4,16(a5)
    800031a4:	f60706e3          	beqz	a4,80003110 <ppuio_write+0x60>
    800031a8:	00b780a3          	sb	a1,1(a5)
    800031ac:	f65ff06f          	j	80003110 <ppuio_write+0x60>
    800031b0:	00b781a3          	sb	a1,3(a5)
    800031b4:	02813083          	ld	ra,40(sp)
    800031b8:	02013403          	ld	s0,32(sp)
    800031bc:	01813483          	ld	s1,24(sp)
    800031c0:	01013903          	ld	s2,16(sp)
    800031c4:	03010113          	addi	sp,sp,48
    800031c8:	00008067          	ret
    800031cc:	0037c683          	lbu	a3,3(a5)
    800031d0:	00013717          	auipc	a4,0x13
    800031d4:	cd070713          	addi	a4,a4,-816 # 80015ea0 <PPU_SPRRAM>
    800031d8:	0016861b          	addiw	a2,a3,1
    800031dc:	00d70733          	add	a4,a4,a3
    800031e0:	00c781a3          	sb	a2,3(a5)
    800031e4:	00b70023          	sb	a1,0(a4)
    800031e8:	02813083          	ld	ra,40(sp)
    800031ec:	02013403          	ld	s0,32(sp)
    800031f0:	01813483          	ld	s1,24(sp)
    800031f4:	01013903          	ld	s2,16(sp)
    800031f8:	03010113          	addi	sp,sp,48
    800031fc:	00008067          	ret
    80003200:	0107c703          	lbu	a4,16(a5)
    80003204:	f00706e3          	beqz	a4,80003110 <ppuio_write+0x60>
    80003208:	00f7c703          	lbu	a4,15(a5)
    8000320c:	02071663          	bnez	a4,80003238 <ppuio_write+0x188>
    80003210:	00161697          	auipc	a3,0x161
    80003214:	14b68d23          	sb	a1,346(a3) # 8016436a <ppu_addr_latch>
    80003218:	00174713          	xori	a4,a4,1
    8000321c:	00e787a3          	sb	a4,15(a5)
    80003220:	00100793          	li	a5,1
    80003224:	00161717          	auipc	a4,0x161
    80003228:	14f702a3          	sb	a5,325(a4) # 80164369 <ppu_2007_first_read>
    8000322c:	ee5ff06f          	j	80003110 <ppuio_write+0x60>
    80003230:	00b78423          	sb	a1,8(a5)
    80003234:	ed5ff06f          	j	80003108 <ppuio_write+0x58>
    80003238:	00161697          	auipc	a3,0x161
    8000323c:	1326c683          	lbu	a3,306(a3) # 8016436a <ppu_addr_latch>
    80003240:	0086969b          	slliw	a3,a3,0x8
    80003244:	00b685bb          	addw	a1,a3,a1
    80003248:	00b79523          	sh	a1,10(a5)
    8000324c:	fcdff06f          	j	80003218 <ppuio_write+0x168>
    80003250:	00040513          	mv	a0,s0
    80003254:	00b13423          	sd	a1,8(sp)
    80003258:	c34ff0ef          	jal	ra,8000268c <ppu_get_real_ram_address.part.0>
    8000325c:	00813583          	ld	a1,8(sp)
    80003260:	0005051b          	sext.w	a0,a0
    80003264:	f0dff06f          	j	80003170 <ppuio_write+0xc0>
    80003268:	00e7fc63          	bgeu	a5,a4,80003280 <ppuio_write+0x1d0>
    8000326c:	00b13423          	sd	a1,8(sp)
    80003270:	c1cff0ef          	jal	ra,8000268c <ppu_get_real_ram_address.part.0>
    80003274:	00813583          	ld	a1,8(sp)
    80003278:	0005079b          	sext.w	a5,a0
    8000327c:	ecdff06f          	j	80003148 <ppuio_write+0x98>
    80003280:	000107b7          	lui	a5,0x10
    80003284:	fff78793          	addi	a5,a5,-1 # ffff <_entry_offset+0xffff>
    80003288:	ec1ff06f          	j	80003148 <ppuio_write+0x98>

000000008000328c <ppu_init>:
    8000328c:	00a007b7          	lui	a5,0xa00
    80003290:	00169717          	auipc	a4,0x169
    80003294:	10f72c23          	sw	a5,280(a4) # 8016c3a8 <ppu>
    80003298:	00169797          	auipc	a5,0x169
    8000329c:	1007ac23          	sw	zero,280(a5) # 8016c3b0 <ppu+0x8>
    800032a0:	00169797          	auipc	a5,0x169
    800032a4:	10079a23          	sh	zero,276(a5) # 8016c3b4 <ppu+0xc>
    800032a8:	fe010113          	addi	sp,sp,-32
    800032ac:	00100793          	li	a5,1
    800032b0:	000012b7          	lui	t0,0x1
    800032b4:	00813c23          	sd	s0,24(sp)
    800032b8:	00913823          	sd	s1,16(sp)
    800032bc:	01213423          	sd	s2,8(sp)
    800032c0:	00161717          	auipc	a4,0x161
    800032c4:	0af704a3          	sb	a5,169(a4) # 80164369 <ppu_2007_first_read>
    800032c8:	00093497          	auipc	s1,0x93
    800032cc:	cd848493          	addi	s1,s1,-808 # 80095fa0 <ppu_l_h_addition_table>
    800032d0:	00013417          	auipc	s0,0x13
    800032d4:	cd040413          	addi	s0,s0,-816 # 80015fa0 <ppu_l_h_addition_flip_table>
    800032d8:	00000393          	li	t2,0
    800032dc:	00700f93          	li	t6,7
    800032e0:	00800f13          	li	t5,8
    800032e4:	80028293          	addi	t0,t0,-2048 # 800 <_entry_offset+0x800>
    800032e8:	10000913          	li	s2,256
    800032ec:	0003881b          	sext.w	a6,t2
    800032f0:	00040e93          	mv	t4,s0
    800032f4:	00048e13          	mv	t3,s1
    800032f8:	00000513          	li	a0,0
    800032fc:	00000793          	li	a5,0
    80003300:	40ff863b          	subw	a2,t6,a5
    80003304:	40f8573b          	sraw	a4,a6,a5
    80003308:	40c856bb          	sraw	a3,a6,a2
    8000330c:	40f555bb          	sraw	a1,a0,a5
    80003310:	0016969b          	slliw	a3,a3,0x1
    80003314:	40c5563b          	sraw	a2,a0,a2
    80003318:	0017171b          	slliw	a4,a4,0x1
    8000331c:	0026f693          	andi	a3,a3,2
    80003320:	00167613          	andi	a2,a2,1
    80003324:	00277713          	andi	a4,a4,2
    80003328:	0015f593          	andi	a1,a1,1
    8000332c:	00fe0333          	add	t1,t3,a5
    80003330:	00fe88b3          	add	a7,t4,a5
    80003334:	00c6e6b3          	or	a3,a3,a2
    80003338:	00b76733          	or	a4,a4,a1
    8000333c:	00d30023          	sb	a3,0(t1)
    80003340:	00e88023          	sb	a4,0(a7)
    80003344:	00178793          	addi	a5,a5,1
    80003348:	fbe79ce3          	bne	a5,t5,80003300 <ppu_init+0x74>
    8000334c:	0015051b          	addiw	a0,a0,1
    80003350:	005e0e33          	add	t3,t3,t0
    80003354:	005e8eb3          	add	t4,t4,t0
    80003358:	fb2512e3          	bne	a0,s2,800032fc <ppu_init+0x70>
    8000335c:	00138393          	addi	t2,t2,1
    80003360:	00848493          	addi	s1,s1,8
    80003364:	00840413          	addi	s0,s0,8
    80003368:	f8a392e3          	bne	t2,a0,800032ec <ppu_init+0x60>
    8000336c:	01813403          	ld	s0,24(sp)
    80003370:	01013483          	ld	s1,16(sp)
    80003374:	00813903          	ld	s2,8(sp)
    80003378:	02010113          	addi	sp,sp,32
    8000337c:	00008067          	ret

0000000080003380 <ppu_sprram_write>:
    80003380:	00169717          	auipc	a4,0x169
    80003384:	02870713          	addi	a4,a4,40 # 8016c3a8 <ppu>
    80003388:	00374683          	lbu	a3,3(a4)
    8000338c:	00013797          	auipc	a5,0x13
    80003390:	b1478793          	addi	a5,a5,-1260 # 80015ea0 <PPU_SPRRAM>
    80003394:	0016861b          	addiw	a2,a3,1
    80003398:	00d787b3          	add	a5,a5,a3
    8000339c:	00c701a3          	sb	a2,3(a4)
    800033a0:	00a78023          	sb	a0,0(a5)
    800033a4:	00008067          	ret

00000000800033a8 <ppu_set_mirroring>:
    800033a8:	40000793          	li	a5,1024
    800033ac:	00169717          	auipc	a4,0x169
    800033b0:	ffc70713          	addi	a4,a4,-4 # 8016c3a8 <ppu>
    800033b4:	00a797bb          	sllw	a5,a5,a0
    800033b8:	00a72a23          	sw	a0,20(a4)
    800033bc:	00f72c23          	sw	a5,24(a4)
    800033c0:	00008067          	ret

00000000800033c4 <main>:
    800033c4:	ff010113          	addi	sp,sp,-16
    800033c8:	00113423          	sd	ra,8(sp)
    800033cc:	559000ef          	jal	ra,80004124 <ioe_init>
    800033d0:	00003517          	auipc	a0,0x3
    800033d4:	96850513          	addi	a0,a0,-1688 # 80005d38 <cpu_zn_flag_table+0x130>
    800033d8:	7d8020ef          	jal	ra,80005bb0 <printf>
    800033dc:	00003517          	auipc	a0,0x3
    800033e0:	2ac50513          	addi	a0,a0,684 # 80006688 <rom_mario_nes>
    800033e4:	1bc000ef          	jal	ra,800035a0 <fce_load_rom>
    800033e8:	00003517          	auipc	a0,0x3
    800033ec:	95850513          	addi	a0,a0,-1704 # 80005d40 <cpu_zn_flag_table+0x138>
    800033f0:	7c0020ef          	jal	ra,80005bb0 <printf>
    800033f4:	310000ef          	jal	ra,80003704 <fce_init>
    800033f8:	00003517          	auipc	a0,0x3
    800033fc:	96050513          	addi	a0,a0,-1696 # 80005d58 <cpu_zn_flag_table+0x150>
    80003400:	7b0020ef          	jal	ra,80005bb0 <printf>
    80003404:	40c000ef          	jal	ra,80003810 <fce_run>
    80003408:	00813083          	ld	ra,8(sp)
    8000340c:	00100513          	li	a0,1
    80003410:	01010113          	addi	sp,sp,16
    80003414:	00008067          	ret

0000000080003418 <mmc_read>:
    80003418:	00169797          	auipc	a5,0x169
    8000341c:	fb878793          	addi	a5,a5,-72 # 8016c3d0 <memory>
    80003420:	00a787b3          	add	a5,a5,a0
    80003424:	0007c503          	lbu	a0,0(a5)
    80003428:	00008067          	ret

000000008000342c <mmc_write>:
    8000342c:	fe010113          	addi	sp,sp,-32
    80003430:	00813823          	sd	s0,16(sp)
    80003434:	00913423          	sd	s1,8(sp)
    80003438:	00113c23          	sd	ra,24(sp)
    8000343c:	00179717          	auipc	a4,0x179
    80003440:	f9474703          	lbu	a4,-108(a4) # 8017c3d0 <mmc_id>
    80003444:	00300793          	li	a5,3
    80003448:	00050493          	mv	s1,a0
    8000344c:	00058413          	mv	s0,a1
    80003450:	02f70463          	beq	a4,a5,80003478 <mmc_write+0x4c>
    80003454:	00169797          	auipc	a5,0x169
    80003458:	f7c78793          	addi	a5,a5,-132 # 8016c3d0 <memory>
    8000345c:	00978533          	add	a0,a5,s1
    80003460:	00850023          	sb	s0,0(a0)
    80003464:	01813083          	ld	ra,24(sp)
    80003468:	01013403          	ld	s0,16(sp)
    8000346c:	00813483          	ld	s1,8(sp)
    80003470:	02010113          	addi	sp,sp,32
    80003474:	00008067          	ret
    80003478:	0035f793          	andi	a5,a1,3
    8000347c:	00d79793          	slli	a5,a5,0xd
    80003480:	00123597          	auipc	a1,0x123
    80003484:	ae058593          	addi	a1,a1,-1312 # 80125f60 <mmc_chr_pages>
    80003488:	00f585b3          	add	a1,a1,a5
    8000348c:	00000513          	li	a0,0
    80003490:	00002637          	lui	a2,0x2
    80003494:	a69ff0ef          	jal	ra,80002efc <ppu_copy>
    80003498:	00169797          	auipc	a5,0x169
    8000349c:	f3878793          	addi	a5,a5,-200 # 8016c3d0 <memory>
    800034a0:	00978533          	add	a0,a5,s1
    800034a4:	00850023          	sb	s0,0(a0)
    800034a8:	01813083          	ld	ra,24(sp)
    800034ac:	01013403          	ld	s0,16(sp)
    800034b0:	00813483          	ld	s1,8(sp)
    800034b4:	02010113          	addi	sp,sp,32
    800034b8:	00008067          	ret

00000000800034bc <mmc_copy>:
    800034bc:	00169797          	auipc	a5,0x169
    800034c0:	f1478793          	addi	a5,a5,-236 # 8016c3d0 <memory>
    800034c4:	ff010113          	addi	sp,sp,-16
    800034c8:	00a78533          	add	a0,a5,a0
    800034cc:	00113423          	sd	ra,8(sp)
    800034d0:	691000ef          	jal	ra,80004360 <memcpy>
    800034d4:	00813083          	ld	ra,8(sp)
    800034d8:	00003517          	auipc	a0,0x3
    800034dc:	89050513          	addi	a0,a0,-1904 # 80005d68 <cpu_zn_flag_table+0x160>
    800034e0:	01010113          	addi	sp,sp,16
    800034e4:	6cc0206f          	j	80005bb0 <printf>

00000000800034e8 <mmc_append_chr_rom_page>:
    800034e8:	fe010113          	addi	sp,sp,-32
    800034ec:	00813823          	sd	s0,16(sp)
    800034f0:	00913423          	sd	s1,8(sp)
    800034f4:	00179417          	auipc	s0,0x179
    800034f8:	ee040413          	addi	s0,s0,-288 # 8017c3d4 <mmc_chr_pages_number>
    800034fc:	00050493          	mv	s1,a0
    80003500:	00003517          	auipc	a0,0x3
    80003504:	87850513          	addi	a0,a0,-1928 # 80005d78 <cpu_zn_flag_table+0x170>
    80003508:	00113c23          	sd	ra,24(sp)
    8000350c:	00042023          	sw	zero,0(s0)
    80003510:	6a0020ef          	jal	ra,80005bb0 <printf>
    80003514:	00042783          	lw	a5,0(s0)
    80003518:	01813083          	ld	ra,24(sp)
    8000351c:	00048593          	mv	a1,s1
    80003520:	00d79713          	slli	a4,a5,0xd
    80003524:	0017879b          	addiw	a5,a5,1
    80003528:	00f42023          	sw	a5,0(s0)
    8000352c:	01013403          	ld	s0,16(sp)
    80003530:	00813483          	ld	s1,8(sp)
    80003534:	00123517          	auipc	a0,0x123
    80003538:	a2c50513          	addi	a0,a0,-1492 # 80125f60 <mmc_chr_pages>
    8000353c:	00002637          	lui	a2,0x2
    80003540:	00e50533          	add	a0,a0,a4
    80003544:	02010113          	addi	sp,sp,32
    80003548:	6190006f          	j	80004360 <memcpy>

000000008000354c <draw>:
    8000354c:	0ff00793          	li	a5,255
    80003550:	04a7e663          	bltu	a5,a0,8000359c <draw+0x50>
    80003554:	0ef00793          	li	a5,239
    80003558:	04b7e263          	bltu	a5,a1,8000359c <draw+0x50>
    8000355c:	00161797          	auipc	a5,0x161
    80003560:	e247a783          	lw	a5,-476(a5) # 80164380 <frame_cnt>
    80003564:	0017f793          	andi	a5,a5,1
    80003568:	02079a63          	bnez	a5,8000359c <draw+0x50>
    8000356c:	00003797          	auipc	a5,0x3
    80003570:	88c78793          	addi	a5,a5,-1908 # 80005df8 <palette>
    80003574:	00261613          	slli	a2,a2,0x2
    80003578:	00c78633          	add	a2,a5,a2
    8000357c:	0085959b          	slliw	a1,a1,0x8
    80003580:	00062703          	lw	a4,0(a2) # 2000 <_entry_offset+0x2000>
    80003584:	00a5853b          	addw	a0,a1,a0
    80003588:	00251513          	slli	a0,a0,0x2
    8000358c:	00125797          	auipc	a5,0x125
    80003590:	9d478793          	addi	a5,a5,-1580 # 80127f60 <canvas>
    80003594:	00a78533          	add	a0,a5,a0
    80003598:	00e52023          	sw	a4,0(a0)
    8000359c:	00008067          	ret

00000000800035a0 <fce_load_rom>:
    800035a0:	fc010113          	addi	sp,sp,-64
    800035a4:	03213023          	sd	s2,32(sp)
    800035a8:	01313c23          	sd	s3,24(sp)
    800035ac:	01050713          	addi	a4,a0,16
    800035b0:	00161917          	auipc	s2,0x161
    800035b4:	dc090913          	addi	s2,s2,-576 # 80164370 <buf>
    800035b8:	00161997          	auipc	s3,0x161
    800035bc:	dc098993          	addi	s3,s3,-576 # 80164378 <fce_rom_header>
    800035c0:	00400613          	li	a2,4
    800035c4:	00002597          	auipc	a1,0x2
    800035c8:	7bc58593          	addi	a1,a1,1980 # 80005d80 <cpu_zn_flag_table+0x178>
    800035cc:	02113c23          	sd	ra,56(sp)
    800035d0:	02813823          	sd	s0,48(sp)
    800035d4:	02913423          	sd	s1,40(sp)
    800035d8:	01413823          	sd	s4,16(sp)
    800035dc:	01513423          	sd	s5,8(sp)
    800035e0:	00e93023          	sd	a4,0(s2)
    800035e4:	00a9b023          	sd	a0,0(s3)
    800035e8:	59d000ef          	jal	ra,80004384 <memcmp>
    800035ec:	0e051663          	bnez	a0,800036d8 <fce_load_rom+0x138>
    800035f0:	0009b703          	ld	a4,0(s3)
    800035f4:	00093403          	ld	s0,0(s2)
    800035f8:	00050a93          	mv	s5,a0
    800035fc:	00675783          	lhu	a5,6(a4)
    80003600:	00474683          	lbu	a3,4(a4)
    80003604:	4047d79b          	sraiw	a5,a5,0x4
    80003608:	00e69713          	slli	a4,a3,0xe
    8000360c:	00f7f793          	andi	a5,a5,15
    80003610:	00e40733          	add	a4,s0,a4
    80003614:	00179617          	auipc	a2,0x179
    80003618:	daf60e23          	sb	a5,-580(a2) # 8017c3d0 <mmc_id>
    8000361c:	00e93023          	sd	a4,0(s2)
    80003620:	0a079863          	bnez	a5,800036d0 <fce_load_rom+0x130>
    80003624:	00100793          	li	a5,1
    80003628:	0af68c63          	beq	a3,a5,800036e0 <fce_load_rom+0x140>
    8000362c:	00002517          	auipc	a0,0x2
    80003630:	75c50513          	addi	a0,a0,1884 # 80005d88 <cpu_zn_flag_table+0x180>
    80003634:	57c020ef          	jal	ra,80005bb0 <printf>
    80003638:	00008637          	lui	a2,0x8
    8000363c:	00040593          	mv	a1,s0
    80003640:	00008537          	lui	a0,0x8
    80003644:	e79ff0ef          	jal	ra,800034bc <mmc_copy>
    80003648:	0009b783          	ld	a5,0(s3)
    8000364c:	00000413          	li	s0,0
    80003650:	00002a37          	lui	s4,0x2
    80003654:	0057c783          	lbu	a5,5(a5)
    80003658:	00079c63          	bnez	a5,80003670 <fce_load_rom+0xd0>
    8000365c:	04c0006f          	j	800036a8 <fce_load_rom+0x108>
    80003660:	0009b783          	ld	a5,0(s3)
    80003664:	0014041b          	addiw	s0,s0,1
    80003668:	0057c783          	lbu	a5,5(a5)
    8000366c:	02f45e63          	bge	s0,a5,800036a8 <fce_load_rom+0x108>
    80003670:	00093483          	ld	s1,0(s2)
    80003674:	014487b3          	add	a5,s1,s4
    80003678:	00048513          	mv	a0,s1
    8000367c:	00f93023          	sd	a5,0(s2)
    80003680:	e69ff0ef          	jal	ra,800034e8 <mmc_append_chr_rom_page>
    80003684:	fc041ee3          	bnez	s0,80003660 <fce_load_rom+0xc0>
    80003688:	00002637          	lui	a2,0x2
    8000368c:	00048593          	mv	a1,s1
    80003690:	00000513          	li	a0,0
    80003694:	869ff0ef          	jal	ra,80002efc <ppu_copy>
    80003698:	0009b783          	ld	a5,0(s3)
    8000369c:	0014041b          	addiw	s0,s0,1
    800036a0:	0057c783          	lbu	a5,5(a5)
    800036a4:	fcf446e3          	blt	s0,a5,80003670 <fce_load_rom+0xd0>
    800036a8:	03813083          	ld	ra,56(sp)
    800036ac:	03013403          	ld	s0,48(sp)
    800036b0:	02813483          	ld	s1,40(sp)
    800036b4:	02013903          	ld	s2,32(sp)
    800036b8:	01813983          	ld	s3,24(sp)
    800036bc:	01013a03          	ld	s4,16(sp)
    800036c0:	000a8513          	mv	a0,s5
    800036c4:	00813a83          	ld	s5,8(sp)
    800036c8:	04010113          	addi	sp,sp,64
    800036cc:	00008067          	ret
    800036d0:	00300713          	li	a4,3
    800036d4:	f4e788e3          	beq	a5,a4,80003624 <fce_load_rom+0x84>
    800036d8:	fff00a93          	li	s5,-1
    800036dc:	fcdff06f          	j	800036a8 <fce_load_rom+0x108>
    800036e0:	00040593          	mv	a1,s0
    800036e4:	00004637          	lui	a2,0x4
    800036e8:	00008537          	lui	a0,0x8
    800036ec:	dd1ff0ef          	jal	ra,800034bc <mmc_copy>
    800036f0:	00004637          	lui	a2,0x4
    800036f4:	00040593          	mv	a1,s0
    800036f8:	0000c537          	lui	a0,0xc
    800036fc:	dc1ff0ef          	jal	ra,800034bc <mmc_copy>
    80003700:	f49ff06f          	j	80003648 <fce_load_rom+0xa8>

0000000080003704 <fce_init>:
    80003704:	ff010113          	addi	sp,sp,-16
    80003708:	00113423          	sd	ra,8(sp)
    8000370c:	e7dfd0ef          	jal	ra,80001588 <cpu_init>
    80003710:	00002517          	auipc	a0,0x2
    80003714:	68050513          	addi	a0,a0,1664 # 80005d90 <cpu_zn_flag_table+0x188>
    80003718:	498020ef          	jal	ra,80005bb0 <printf>
    8000371c:	b71ff0ef          	jal	ra,8000328c <ppu_init>
    80003720:	00002517          	auipc	a0,0x2
    80003724:	68050513          	addi	a0,a0,1664 # 80005da0 <cpu_zn_flag_table+0x198>
    80003728:	488020ef          	jal	ra,80005bb0 <printf>
    8000372c:	00161797          	auipc	a5,0x161
    80003730:	c4c7b783          	ld	a5,-948(a5) # 80164378 <fce_rom_header>
    80003734:	0067c503          	lbu	a0,6(a5)
    80003738:	00157513          	andi	a0,a0,1
    8000373c:	c6dff0ef          	jal	ra,800033a8 <ppu_set_mirroring>
    80003740:	00002517          	auipc	a0,0x2
    80003744:	67050513          	addi	a0,a0,1648 # 80005db0 <cpu_zn_flag_table+0x1a8>
    80003748:	468020ef          	jal	ra,80005bb0 <printf>
    8000374c:	d41fe0ef          	jal	ra,8000248c <cpu_reset>
    80003750:	00813083          	ld	ra,8(sp)
    80003754:	00002517          	auipc	a0,0x2
    80003758:	67450513          	addi	a0,a0,1652 # 80005dc8 <cpu_zn_flag_table+0x1c0>
    8000375c:	01010113          	addi	sp,sp,16
    80003760:	4500206f          	j	80005bb0 <printf>

0000000080003764 <wait_for_frame>:
    80003764:	fd010113          	addi	sp,sp,-48
    80003768:	00810593          	addi	a1,sp,8
    8000376c:	00600513          	li	a0,6
    80003770:	02813023          	sd	s0,32(sp)
    80003774:	02113423          	sd	ra,40(sp)
    80003778:	00913c23          	sd	s1,24(sp)
    8000377c:	01213823          	sd	s2,16(sp)
    80003780:	201000ef          	jal	ra,80004180 <ioe_read>
    80003784:	00813783          	ld	a5,8(sp)
    80003788:	3e800713          	li	a4,1000
    8000378c:	00161417          	auipc	s0,0x161
    80003790:	bf840413          	addi	s0,s0,-1032 # 80164384 <gtime>
    80003794:	02e7d7b3          	divu	a5,a5,a4
    80003798:	00042703          	lw	a4,0(s0)
    8000379c:	00f00693          	li	a3,15
    800037a0:	40e7873b          	subw	a4,a5,a4
    800037a4:	04e6c663          	blt	a3,a4,800037f0 <wait_for_frame+0x8c>
    800037a8:	3e800913          	li	s2,1000
    800037ac:	00f00493          	li	s1,15
    800037b0:	00810593          	addi	a1,sp,8
    800037b4:	00600513          	li	a0,6
    800037b8:	1c9000ef          	jal	ra,80004180 <ioe_read>
    800037bc:	00813783          	ld	a5,8(sp)
    800037c0:	00042703          	lw	a4,0(s0)
    800037c4:	0327d7b3          	divu	a5,a5,s2
    800037c8:	40e7873b          	subw	a4,a5,a4
    800037cc:	0007879b          	sext.w	a5,a5
    800037d0:	fee4d0e3          	bge	s1,a4,800037b0 <wait_for_frame+0x4c>
    800037d4:	02813083          	ld	ra,40(sp)
    800037d8:	00f42023          	sw	a5,0(s0)
    800037dc:	02013403          	ld	s0,32(sp)
    800037e0:	01813483          	ld	s1,24(sp)
    800037e4:	01013903          	ld	s2,16(sp)
    800037e8:	03010113          	addi	sp,sp,48
    800037ec:	00008067          	ret
    800037f0:	0007879b          	sext.w	a5,a5
    800037f4:	02813083          	ld	ra,40(sp)
    800037f8:	00f42023          	sw	a5,0(s0)
    800037fc:	02013403          	ld	s0,32(sp)
    80003800:	01813483          	ld	s1,24(sp)
    80003804:	01013903          	ld	s2,16(sp)
    80003808:	03010113          	addi	sp,sp,48
    8000380c:	00008067          	ret

0000000080003810 <fce_run>:
    80003810:	fa010113          	addi	sp,sp,-96
    80003814:	00810593          	addi	a1,sp,8
    80003818:	00600513          	li	a0,6
    8000381c:	03313c23          	sd	s3,56(sp)
    80003820:	03413823          	sd	s4,48(sp)
    80003824:	03613023          	sd	s6,32(sp)
    80003828:	01713c23          	sd	s7,24(sp)
    8000382c:	04113c23          	sd	ra,88(sp)
    80003830:	04813823          	sd	s0,80(sp)
    80003834:	04913423          	sd	s1,72(sp)
    80003838:	05213023          	sd	s2,64(sp)
    8000383c:	03513423          	sd	s5,40(sp)
    80003840:	141000ef          	jal	ra,80004180 <ioe_read>
    80003844:	00813a03          	ld	s4,8(sp)
    80003848:	3e800793          	li	a5,1000
    8000384c:	3e800993          	li	s3,1000
    80003850:	02fa5a33          	divu	s4,s4,a5
    80003854:	3e800b93          	li	s7,1000
    80003858:	00002b17          	auipc	s6,0x2
    8000385c:	580b0b13          	addi	s6,s6,1408 # 80005dd8 <cpu_zn_flag_table+0x1d0>
    80003860:	00161797          	auipc	a5,0x161
    80003864:	b347a223          	sw	s4,-1244(a5) # 80164384 <gtime>
    80003868:	000a0a1b          	sext.w	s4,s4
    8000386c:	00000913          	li	s2,0
    80003870:	ef5ff0ef          	jal	ra,80003764 <wait_for_frame>
    80003874:	10600413          	li	s0,262
    80003878:	fff4041b          	addiw	s0,s0,-1
    8000387c:	d0cff0ef          	jal	ra,80002d88 <ppu_cycle>
    80003880:	78c000ef          	jal	ra,8000400c <psg_detect_key>
    80003884:	fe041ae3          	bnez	s0,80003878 <fce_run+0x68>
    80003888:	00810593          	addi	a1,sp,8
    8000388c:	00600513          	li	a0,6
    80003890:	0f1000ef          	jal	ra,80004180 <ioe_read>
    80003894:	00813483          	ld	s1,8(sp)
    80003898:	0019091b          	addiw	s2,s2,1
    8000389c:	0334d4b3          	divu	s1,s1,s3
    800038a0:	414487bb          	subw	a5,s1,s4
    800038a4:	00048a9b          	sext.w	s5,s1
    800038a8:	fcf9f4e3          	bgeu	s3,a5,80003870 <fce_run+0x60>
    800038ac:	05000413          	li	s0,80
    800038b0:	fff4041b          	addiw	s0,s0,-1
    800038b4:	00800513          	li	a0,8
    800038b8:	7a0000ef          	jal	ra,80004058 <putch>
    800038bc:	fe041ae3          	bnez	s0,800038b0 <fce_run+0xa0>
    800038c0:	0374c5bb          	divw	a1,s1,s7
    800038c4:	00090613          	mv	a2,s2
    800038c8:	000b0513          	mv	a0,s6
    800038cc:	000a8a13          	mv	s4,s5
    800038d0:	2e0020ef          	jal	ra,80005bb0 <printf>
    800038d4:	f99ff06f          	j	8000386c <fce_run+0x5c>

00000000800038d8 <fce_update_screen>:
    800038d8:	00161717          	auipc	a4,0x161
    800038dc:	aa870713          	addi	a4,a4,-1368 # 80164380 <frame_cnt>
    800038e0:	00072783          	lw	a5,0(a4)
    800038e4:	0017879b          	addiw	a5,a5,1
    800038e8:	00f72023          	sw	a5,0(a4)
    800038ec:	0017f793          	andi	a5,a5,1
    800038f0:	00078463          	beqz	a5,800038f8 <fce_update_screen+0x20>
    800038f4:	00008067          	ret
    800038f8:	00004537          	lui	a0,0x4
    800038fc:	fc010113          	addi	sp,sp,-64
    80003900:	f0050513          	addi	a0,a0,-256 # 3f00 <_entry_offset+0x3f00>
    80003904:	02113c23          	sd	ra,56(sp)
    80003908:	02813823          	sd	s0,48(sp)
    8000390c:	02913423          	sd	s1,40(sp)
    80003910:	dd1fe0ef          	jal	ra,800026e0 <ppu_ram_read>
    80003914:	00f00793          	li	a5,15
    80003918:	02179693          	slli	a3,a5,0x21
    8000391c:	0005071b          	sext.w	a4,a0
    80003920:	02479793          	slli	a5,a5,0x24
    80003924:	00271713          	slli	a4,a4,0x2
    80003928:	10078793          	addi	a5,a5,256
    8000392c:	00002617          	auipc	a2,0x2
    80003930:	4cc60613          	addi	a2,a2,1228 # 80005df8 <palette>
    80003934:	00e60633          	add	a2,a2,a4
    80003938:	00124417          	auipc	s0,0x124
    8000393c:	62840413          	addi	s0,s0,1576 # 80127f60 <canvas>
    80003940:	04868713          	addi	a4,a3,72
    80003944:	00f13823          	sd	a5,16(sp)
    80003948:	00010593          	mv	a1,sp
    8000394c:	00100793          	li	a5,1
    80003950:	00b00513          	li	a0,11
    80003954:	00e13023          	sd	a4,0(sp)
    80003958:	00f10c23          	sb	a5,24(sp)
    8000395c:	00062483          	lw	s1,0(a2)
    80003960:	00813423          	sd	s0,8(sp)
    80003964:	039000ef          	jal	ra,8000419c <ioe_write>
    80003968:	00040793          	mv	a5,s0
    8000396c:	00160717          	auipc	a4,0x160
    80003970:	5f470713          	addi	a4,a4,1524 # 80163f60 <key_state>
    80003974:	0097a023          	sw	s1,0(a5)
    80003978:	00478793          	addi	a5,a5,4
    8000397c:	fee79ce3          	bne	a5,a4,80003974 <fce_update_screen+0x9c>
    80003980:	03813083          	ld	ra,56(sp)
    80003984:	03013403          	ld	s0,48(sp)
    80003988:	02813483          	ld	s1,40(sp)
    8000398c:	04010113          	addi	sp,sp,64
    80003990:	00008067          	ret

0000000080003994 <common_bit_set>:
    80003994:	00100793          	li	a5,1
    80003998:	00b797b3          	sll	a5,a5,a1
    8000399c:	00a7f533          	and	a0,a5,a0
    800039a0:	00a03533          	snez	a0,a0
    800039a4:	00008067          	ret

00000000800039a8 <common_set_bitb>:
    800039a8:	00054703          	lbu	a4,0(a0)
    800039ac:	00100793          	li	a5,1
    800039b0:	00b797b3          	sll	a5,a5,a1
    800039b4:	00e7e7b3          	or	a5,a5,a4
    800039b8:	00f50023          	sb	a5,0(a0)
    800039bc:	00008067          	ret

00000000800039c0 <common_unset_bitb>:
    800039c0:	00054703          	lbu	a4,0(a0)
    800039c4:	00100793          	li	a5,1
    800039c8:	00b797b3          	sll	a5,a5,a1
    800039cc:	fff7c793          	not	a5,a5
    800039d0:	00e7f7b3          	and	a5,a5,a4
    800039d4:	00f50023          	sb	a5,0(a0)
    800039d8:	00008067          	ret

00000000800039dc <common_modify_bitb>:
    800039dc:	00100793          	li	a5,1
    800039e0:	00b795b3          	sll	a1,a5,a1
    800039e4:	0185959b          	slliw	a1,a1,0x18
    800039e8:	00050783          	lb	a5,0(a0)
    800039ec:	4185d59b          	sraiw	a1,a1,0x18
    800039f0:	00060863          	beqz	a2,80003a00 <common_modify_bitb+0x24>
    800039f4:	00b7e5b3          	or	a1,a5,a1
    800039f8:	00b50023          	sb	a1,0(a0)
    800039fc:	00008067          	ret
    80003a00:	fff5c593          	not	a1,a1
    80003a04:	00b7f5b3          	and	a1,a5,a1
    80003a08:	00b50023          	sb	a1,0(a0)
    80003a0c:	00008067          	ret

0000000080003a10 <cpu_address_implied>:
    80003a10:	00008067          	ret

0000000080003a14 <cpu_address_immediate>:
    80003a14:	ff010113          	addi	sp,sp,-16
    80003a18:	00813023          	sd	s0,0(sp)
    80003a1c:	00161417          	auipc	s0,0x161
    80003a20:	97c40413          	addi	s0,s0,-1668 # 80164398 <cpu>
    80003a24:	00045503          	lhu	a0,0(s0)
    80003a28:	00113423          	sd	ra,8(sp)
    80003a2c:	de4fc0ef          	jal	ra,80000010 <memory_readb>
    80003a30:	00045783          	lhu	a5,0(s0)
    80003a34:	00813083          	ld	ra,8(sp)
    80003a38:	00161717          	auipc	a4,0x161
    80003a3c:	94a72c23          	sw	a0,-1704(a4) # 80164390 <op_value>
    80003a40:	0017879b          	addiw	a5,a5,1
    80003a44:	00f41023          	sh	a5,0(s0)
    80003a48:	00013403          	ld	s0,0(sp)
    80003a4c:	01010113          	addi	sp,sp,16
    80003a50:	00008067          	ret

0000000080003a54 <cpu_address_zero_page>:
    80003a54:	ff010113          	addi	sp,sp,-16
    80003a58:	00813023          	sd	s0,0(sp)
    80003a5c:	00161417          	auipc	s0,0x161
    80003a60:	93c40413          	addi	s0,s0,-1732 # 80164398 <cpu>
    80003a64:	00045503          	lhu	a0,0(s0)
    80003a68:	00113423          	sd	ra,8(sp)
    80003a6c:	da4fc0ef          	jal	ra,80000010 <memory_readb>
    80003a70:	00045783          	lhu	a5,0(s0)
    80003a74:	0005069b          	sext.w	a3,a0
    80003a78:	00161717          	auipc	a4,0x161
    80003a7c:	92870713          	addi	a4,a4,-1752 # 801643a0 <CPU_RAM>
    80003a80:	00d70733          	add	a4,a4,a3
    80003a84:	00074703          	lbu	a4,0(a4)
    80003a88:	0017879b          	addiw	a5,a5,1
    80003a8c:	00813083          	ld	ra,8(sp)
    80003a90:	00f41023          	sh	a5,0(s0)
    80003a94:	00013403          	ld	s0,0(sp)
    80003a98:	00161697          	auipc	a3,0x161
    80003a9c:	8ea6ae23          	sw	a0,-1796(a3) # 80164394 <op_address>
    80003aa0:	00161697          	auipc	a3,0x161
    80003aa4:	8ee6a823          	sw	a4,-1808(a3) # 80164390 <op_value>
    80003aa8:	01010113          	addi	sp,sp,16
    80003aac:	00008067          	ret

0000000080003ab0 <cpu_address_zero_page_x>:
    80003ab0:	ff010113          	addi	sp,sp,-16
    80003ab4:	00813023          	sd	s0,0(sp)
    80003ab8:	00161417          	auipc	s0,0x161
    80003abc:	8e040413          	addi	s0,s0,-1824 # 80164398 <cpu>
    80003ac0:	00045503          	lhu	a0,0(s0)
    80003ac4:	00113423          	sd	ra,8(sp)
    80003ac8:	d48fc0ef          	jal	ra,80000010 <memory_readb>
    80003acc:	00444783          	lbu	a5,4(s0)
    80003ad0:	00045703          	lhu	a4,0(s0)
    80003ad4:	00813083          	ld	ra,8(sp)
    80003ad8:	00a7853b          	addw	a0,a5,a0
    80003adc:	0ff57693          	andi	a3,a0,255
    80003ae0:	00161797          	auipc	a5,0x161
    80003ae4:	8c078793          	addi	a5,a5,-1856 # 801643a0 <CPU_RAM>
    80003ae8:	00d787b3          	add	a5,a5,a3
    80003aec:	0007c783          	lbu	a5,0(a5)
    80003af0:	0017071b          	addiw	a4,a4,1
    80003af4:	00e41023          	sh	a4,0(s0)
    80003af8:	00013403          	ld	s0,0(sp)
    80003afc:	0ff57513          	andi	a0,a0,255
    80003b00:	00161697          	auipc	a3,0x161
    80003b04:	88a6aa23          	sw	a0,-1900(a3) # 80164394 <op_address>
    80003b08:	00161697          	auipc	a3,0x161
    80003b0c:	88f6a423          	sw	a5,-1912(a3) # 80164390 <op_value>
    80003b10:	01010113          	addi	sp,sp,16
    80003b14:	00008067          	ret

0000000080003b18 <cpu_address_zero_page_y>:
    80003b18:	ff010113          	addi	sp,sp,-16
    80003b1c:	00813023          	sd	s0,0(sp)
    80003b20:	00161417          	auipc	s0,0x161
    80003b24:	87840413          	addi	s0,s0,-1928 # 80164398 <cpu>
    80003b28:	00045503          	lhu	a0,0(s0)
    80003b2c:	00113423          	sd	ra,8(sp)
    80003b30:	ce0fc0ef          	jal	ra,80000010 <memory_readb>
    80003b34:	00544783          	lbu	a5,5(s0)
    80003b38:	00045703          	lhu	a4,0(s0)
    80003b3c:	00813083          	ld	ra,8(sp)
    80003b40:	00a7853b          	addw	a0,a5,a0
    80003b44:	0ff57693          	andi	a3,a0,255
    80003b48:	00161797          	auipc	a5,0x161
    80003b4c:	85878793          	addi	a5,a5,-1960 # 801643a0 <CPU_RAM>
    80003b50:	00d787b3          	add	a5,a5,a3
    80003b54:	0007c783          	lbu	a5,0(a5)
    80003b58:	0017071b          	addiw	a4,a4,1
    80003b5c:	00e41023          	sh	a4,0(s0)
    80003b60:	00013403          	ld	s0,0(sp)
    80003b64:	0ff57513          	andi	a0,a0,255
    80003b68:	00161697          	auipc	a3,0x161
    80003b6c:	82a6a623          	sw	a0,-2004(a3) # 80164394 <op_address>
    80003b70:	00161697          	auipc	a3,0x161
    80003b74:	82f6a023          	sw	a5,-2016(a3) # 80164390 <op_value>
    80003b78:	01010113          	addi	sp,sp,16
    80003b7c:	00008067          	ret

0000000080003b80 <cpu_address_absolute>:
    80003b80:	ff010113          	addi	sp,sp,-16
    80003b84:	00813023          	sd	s0,0(sp)
    80003b88:	00161417          	auipc	s0,0x161
    80003b8c:	81040413          	addi	s0,s0,-2032 # 80164398 <cpu>
    80003b90:	00045503          	lhu	a0,0(s0)
    80003b94:	00113423          	sd	ra,8(sp)
    80003b98:	dc8fc0ef          	jal	ra,80000160 <memory_readw>
    80003b9c:	00160797          	auipc	a5,0x160
    80003ba0:	7ea7ac23          	sw	a0,2040(a5) # 80164394 <op_address>
    80003ba4:	c6cfc0ef          	jal	ra,80000010 <memory_readb>
    80003ba8:	00045783          	lhu	a5,0(s0)
    80003bac:	00813083          	ld	ra,8(sp)
    80003bb0:	00160717          	auipc	a4,0x160
    80003bb4:	7ea72023          	sw	a0,2016(a4) # 80164390 <op_value>
    80003bb8:	0027879b          	addiw	a5,a5,2
    80003bbc:	00f41023          	sh	a5,0(s0)
    80003bc0:	00013403          	ld	s0,0(sp)
    80003bc4:	01010113          	addi	sp,sp,16
    80003bc8:	00008067          	ret

0000000080003bcc <cpu_address_absolute_x>:
    80003bcc:	fe010113          	addi	sp,sp,-32
    80003bd0:	00813823          	sd	s0,16(sp)
    80003bd4:	00160417          	auipc	s0,0x160
    80003bd8:	7c440413          	addi	s0,s0,1988 # 80164398 <cpu>
    80003bdc:	00045503          	lhu	a0,0(s0)
    80003be0:	00113c23          	sd	ra,24(sp)
    80003be4:	00913423          	sd	s1,8(sp)
    80003be8:	d78fc0ef          	jal	ra,80000160 <memory_readw>
    80003bec:	00444783          	lbu	a5,4(s0)
    80003bf0:	00160497          	auipc	s1,0x160
    80003bf4:	7a448493          	addi	s1,s1,1956 # 80164394 <op_address>
    80003bf8:	00a787bb          	addw	a5,a5,a0
    80003bfc:	03079513          	slli	a0,a5,0x30
    80003c00:	03055513          	srli	a0,a0,0x30
    80003c04:	00f4a023          	sw	a5,0(s1)
    80003c08:	c08fc0ef          	jal	ra,80000010 <memory_readb>
    80003c0c:	00045783          	lhu	a5,0(s0)
    80003c10:	0004a703          	lw	a4,0(s1)
    80003c14:	00160697          	auipc	a3,0x160
    80003c18:	76a6ae23          	sw	a0,1916(a3) # 80164390 <op_value>
    80003c1c:	0027879b          	addiw	a5,a5,2
    80003c20:	03079793          	slli	a5,a5,0x30
    80003c24:	0307d793          	srli	a5,a5,0x30
    80003c28:	00f41023          	sh	a5,0(s0)
    80003c2c:	4087571b          	sraiw	a4,a4,0x8
    80003c30:	0087d793          	srli	a5,a5,0x8
    80003c34:	00f70c63          	beq	a4,a5,80003c4c <cpu_address_absolute_x+0x80>
    80003c38:	00168717          	auipc	a4,0x168
    80003c3c:	76870713          	addi	a4,a4,1896 # 8016c3a0 <op_cycles>
    80003c40:	00072783          	lw	a5,0(a4)
    80003c44:	0017879b          	addiw	a5,a5,1
    80003c48:	00f72023          	sw	a5,0(a4)
    80003c4c:	01813083          	ld	ra,24(sp)
    80003c50:	01013403          	ld	s0,16(sp)
    80003c54:	00813483          	ld	s1,8(sp)
    80003c58:	02010113          	addi	sp,sp,32
    80003c5c:	00008067          	ret

0000000080003c60 <cpu_address_absolute_y>:
    80003c60:	fe010113          	addi	sp,sp,-32
    80003c64:	00813823          	sd	s0,16(sp)
    80003c68:	00160417          	auipc	s0,0x160
    80003c6c:	73040413          	addi	s0,s0,1840 # 80164398 <cpu>
    80003c70:	00045503          	lhu	a0,0(s0)
    80003c74:	00113c23          	sd	ra,24(sp)
    80003c78:	00913423          	sd	s1,8(sp)
    80003c7c:	ce4fc0ef          	jal	ra,80000160 <memory_readw>
    80003c80:	00544783          	lbu	a5,5(s0)
    80003c84:	00160497          	auipc	s1,0x160
    80003c88:	71048493          	addi	s1,s1,1808 # 80164394 <op_address>
    80003c8c:	00a7853b          	addw	a0,a5,a0
    80003c90:	03051793          	slli	a5,a0,0x30
    80003c94:	0307d793          	srli	a5,a5,0x30
    80003c98:	00078513          	mv	a0,a5
    80003c9c:	00f4a023          	sw	a5,0(s1)
    80003ca0:	b70fc0ef          	jal	ra,80000010 <memory_readb>
    80003ca4:	00045783          	lhu	a5,0(s0)
    80003ca8:	0004a703          	lw	a4,0(s1)
    80003cac:	00160697          	auipc	a3,0x160
    80003cb0:	6ea6a223          	sw	a0,1764(a3) # 80164390 <op_value>
    80003cb4:	0027879b          	addiw	a5,a5,2
    80003cb8:	03079793          	slli	a5,a5,0x30
    80003cbc:	0307d793          	srli	a5,a5,0x30
    80003cc0:	00f41023          	sh	a5,0(s0)
    80003cc4:	4087571b          	sraiw	a4,a4,0x8
    80003cc8:	0087d793          	srli	a5,a5,0x8
    80003ccc:	00f70c63          	beq	a4,a5,80003ce4 <cpu_address_absolute_y+0x84>
    80003cd0:	00168717          	auipc	a4,0x168
    80003cd4:	6d070713          	addi	a4,a4,1744 # 8016c3a0 <op_cycles>
    80003cd8:	00072783          	lw	a5,0(a4)
    80003cdc:	0017879b          	addiw	a5,a5,1
    80003ce0:	00f72023          	sw	a5,0(a4)
    80003ce4:	01813083          	ld	ra,24(sp)
    80003ce8:	01013403          	ld	s0,16(sp)
    80003cec:	00813483          	ld	s1,8(sp)
    80003cf0:	02010113          	addi	sp,sp,32
    80003cf4:	00008067          	ret

0000000080003cf8 <cpu_address_relative>:
    80003cf8:	ff010113          	addi	sp,sp,-16
    80003cfc:	00813023          	sd	s0,0(sp)
    80003d00:	00160417          	auipc	s0,0x160
    80003d04:	69840413          	addi	s0,s0,1688 # 80164398 <cpu>
    80003d08:	00045503          	lhu	a0,0(s0)
    80003d0c:	00113423          	sd	ra,8(sp)
    80003d10:	b00fc0ef          	jal	ra,80000010 <memory_readb>
    80003d14:	00045783          	lhu	a5,0(s0)
    80003d18:	0185171b          	slliw	a4,a0,0x18
    80003d1c:	4187571b          	sraiw	a4,a4,0x18
    80003d20:	0017879b          	addiw	a5,a5,1
    80003d24:	03079793          	slli	a5,a5,0x30
    80003d28:	0307d793          	srli	a5,a5,0x30
    80003d2c:	00f41023          	sh	a5,0(s0)
    80003d30:	0005051b          	sext.w	a0,a0
    80003d34:	00075463          	bgez	a4,80003d3c <cpu_address_relative+0x44>
    80003d38:	f005051b          	addiw	a0,a0,-256
    80003d3c:	00a7853b          	addw	a0,a5,a0
    80003d40:	00160717          	auipc	a4,0x160
    80003d44:	64a72a23          	sw	a0,1620(a4) # 80164394 <op_address>
    80003d48:	0087d793          	srli	a5,a5,0x8
    80003d4c:	4085551b          	sraiw	a0,a0,0x8
    80003d50:	00f50c63          	beq	a0,a5,80003d68 <cpu_address_relative+0x70>
    80003d54:	00168717          	auipc	a4,0x168
    80003d58:	64c70713          	addi	a4,a4,1612 # 8016c3a0 <op_cycles>
    80003d5c:	00072783          	lw	a5,0(a4)
    80003d60:	0017879b          	addiw	a5,a5,1
    80003d64:	00f72023          	sw	a5,0(a4)
    80003d68:	00813083          	ld	ra,8(sp)
    80003d6c:	00013403          	ld	s0,0(sp)
    80003d70:	01010113          	addi	sp,sp,16
    80003d74:	00008067          	ret

0000000080003d78 <cpu_address_indirect>:
    80003d78:	fe010113          	addi	sp,sp,-32
    80003d7c:	00913423          	sd	s1,8(sp)
    80003d80:	00160497          	auipc	s1,0x160
    80003d84:	61848493          	addi	s1,s1,1560 # 80164398 <cpu>
    80003d88:	0004d503          	lhu	a0,0(s1)
    80003d8c:	00113c23          	sd	ra,24(sp)
    80003d90:	00813823          	sd	s0,16(sp)
    80003d94:	01213023          	sd	s2,0(sp)
    80003d98:	bc8fc0ef          	jal	ra,80000160 <memory_readw>
    80003d9c:	0ff57713          	andi	a4,a0,255
    80003da0:	0ff00793          	li	a5,255
    80003da4:	02f70a63          	beq	a4,a5,80003dd8 <cpu_address_indirect+0x60>
    80003da8:	bb8fc0ef          	jal	ra,80000160 <memory_readw>
    80003dac:	00160797          	auipc	a5,0x160
    80003db0:	5ea7a423          	sw	a0,1512(a5) # 80164394 <op_address>
    80003db4:	0004d783          	lhu	a5,0(s1)
    80003db8:	01813083          	ld	ra,24(sp)
    80003dbc:	01013403          	ld	s0,16(sp)
    80003dc0:	0027879b          	addiw	a5,a5,2
    80003dc4:	00f49023          	sh	a5,0(s1)
    80003dc8:	00013903          	ld	s2,0(sp)
    80003dcc:	00813483          	ld	s1,8(sp)
    80003dd0:	02010113          	addi	sp,sp,32
    80003dd4:	00008067          	ret
    80003dd8:	00050413          	mv	s0,a0
    80003ddc:	f0057513          	andi	a0,a0,-256
    80003de0:	03051513          	slli	a0,a0,0x30
    80003de4:	03055513          	srli	a0,a0,0x30
    80003de8:	a28fc0ef          	jal	ra,80000010 <memory_readb>
    80003dec:	00050913          	mv	s2,a0
    80003df0:	00040513          	mv	a0,s0
    80003df4:	a1cfc0ef          	jal	ra,80000010 <memory_readb>
    80003df8:	0089191b          	slliw	s2,s2,0x8
    80003dfc:	00a9093b          	addw	s2,s2,a0
    80003e00:	00160797          	auipc	a5,0x160
    80003e04:	5927aa23          	sw	s2,1428(a5) # 80164394 <op_address>
    80003e08:	fadff06f          	j	80003db4 <cpu_address_indirect+0x3c>

0000000080003e0c <cpu_address_indirect_x>:
    80003e0c:	fe010113          	addi	sp,sp,-32
    80003e10:	00813823          	sd	s0,16(sp)
    80003e14:	00160417          	auipc	s0,0x160
    80003e18:	58440413          	addi	s0,s0,1412 # 80164398 <cpu>
    80003e1c:	00045503          	lhu	a0,0(s0)
    80003e20:	00113c23          	sd	ra,24(sp)
    80003e24:	00913423          	sd	s1,8(sp)
    80003e28:	01213023          	sd	s2,0(sp)
    80003e2c:	9e4fc0ef          	jal	ra,80000010 <memory_readb>
    80003e30:	00444783          	lbu	a5,4(s0)
    80003e34:	00050913          	mv	s2,a0
    80003e38:	0017879b          	addiw	a5,a5,1
    80003e3c:	00a787bb          	addw	a5,a5,a0
    80003e40:	0ff7f513          	andi	a0,a5,255
    80003e44:	9ccfc0ef          	jal	ra,80000010 <memory_readb>
    80003e48:	00444783          	lbu	a5,4(s0)
    80003e4c:	00050493          	mv	s1,a0
    80003e50:	0084949b          	slliw	s1,s1,0x8
    80003e54:	0127853b          	addw	a0,a5,s2
    80003e58:	0ff57513          	andi	a0,a0,255
    80003e5c:	9b4fc0ef          	jal	ra,80000010 <memory_readb>
    80003e60:	009564b3          	or	s1,a0,s1
    80003e64:	03049513          	slli	a0,s1,0x30
    80003e68:	03055513          	srli	a0,a0,0x30
    80003e6c:	00160797          	auipc	a5,0x160
    80003e70:	5297a423          	sw	s1,1320(a5) # 80164394 <op_address>
    80003e74:	99cfc0ef          	jal	ra,80000010 <memory_readb>
    80003e78:	00045783          	lhu	a5,0(s0)
    80003e7c:	01813083          	ld	ra,24(sp)
    80003e80:	00160717          	auipc	a4,0x160
    80003e84:	50a72823          	sw	a0,1296(a4) # 80164390 <op_value>
    80003e88:	0017879b          	addiw	a5,a5,1
    80003e8c:	00f41023          	sh	a5,0(s0)
    80003e90:	01013403          	ld	s0,16(sp)
    80003e94:	00813483          	ld	s1,8(sp)
    80003e98:	00013903          	ld	s2,0(sp)
    80003e9c:	02010113          	addi	sp,sp,32
    80003ea0:	00008067          	ret

0000000080003ea4 <cpu_address_indirect_y>:
    80003ea4:	fd010113          	addi	sp,sp,-48
    80003ea8:	00913c23          	sd	s1,24(sp)
    80003eac:	00160497          	auipc	s1,0x160
    80003eb0:	4ec48493          	addi	s1,s1,1260 # 80164398 <cpu>
    80003eb4:	0004d503          	lhu	a0,0(s1)
    80003eb8:	02113423          	sd	ra,40(sp)
    80003ebc:	02813023          	sd	s0,32(sp)
    80003ec0:	01213823          	sd	s2,16(sp)
    80003ec4:	01313423          	sd	s3,8(sp)
    80003ec8:	948fc0ef          	jal	ra,80000010 <memory_readb>
    80003ecc:	03051913          	slli	s2,a0,0x30
    80003ed0:	03095913          	srli	s2,s2,0x30
    80003ed4:	0019051b          	addiw	a0,s2,1
    80003ed8:	0ff57513          	andi	a0,a0,255
    80003edc:	934fc0ef          	jal	ra,80000010 <memory_readb>
    80003ee0:	00050413          	mv	s0,a0
    80003ee4:	00090513          	mv	a0,s2
    80003ee8:	928fc0ef          	jal	ra,80000010 <memory_readb>
    80003eec:	0054c783          	lbu	a5,5(s1)
    80003ef0:	0084141b          	slliw	s0,s0,0x8
    80003ef4:	00856433          	or	s0,a0,s0
    80003ef8:	0087853b          	addw	a0,a5,s0
    80003efc:	03051793          	slli	a5,a0,0x30
    80003f00:	0307d793          	srli	a5,a5,0x30
    80003f04:	00160997          	auipc	s3,0x160
    80003f08:	49098993          	addi	s3,s3,1168 # 80164394 <op_address>
    80003f0c:	00078513          	mv	a0,a5
    80003f10:	00f9a023          	sw	a5,0(s3)
    80003f14:	8fcfc0ef          	jal	ra,80000010 <memory_readb>
    80003f18:	0004d783          	lhu	a5,0(s1)
    80003f1c:	0009a703          	lw	a4,0(s3)
    80003f20:	00160697          	auipc	a3,0x160
    80003f24:	46a6a823          	sw	a0,1136(a3) # 80164390 <op_value>
    80003f28:	0017879b          	addiw	a5,a5,1
    80003f2c:	03079793          	slli	a5,a5,0x30
    80003f30:	0307d793          	srli	a5,a5,0x30
    80003f34:	00f49023          	sh	a5,0(s1)
    80003f38:	4087571b          	sraiw	a4,a4,0x8
    80003f3c:	0087d793          	srli	a5,a5,0x8
    80003f40:	00f70c63          	beq	a4,a5,80003f58 <cpu_address_indirect_y+0xb4>
    80003f44:	00168717          	auipc	a4,0x168
    80003f48:	45c70713          	addi	a4,a4,1116 # 8016c3a0 <op_cycles>
    80003f4c:	00072783          	lw	a5,0(a4)
    80003f50:	0017879b          	addiw	a5,a5,1
    80003f54:	00f72023          	sw	a5,0(a4)
    80003f58:	02813083          	ld	ra,40(sp)
    80003f5c:	02013403          	ld	s0,32(sp)
    80003f60:	01813483          	ld	s1,24(sp)
    80003f64:	01013903          	ld	s2,16(sp)
    80003f68:	00813983          	ld	s3,8(sp)
    80003f6c:	03010113          	addi	sp,sp,48
    80003f70:	00008067          	ret

0000000080003f74 <psgio_read>:
    80003f74:	000047b7          	lui	a5,0x4
    80003f78:	01678793          	addi	a5,a5,22 # 4016 <_entry_offset+0x4016>
    80003f7c:	00f50663          	beq	a0,a5,80003f88 <psgio_read+0x14>
    80003f80:	00000513          	li	a0,0
    80003f84:	00008067          	ret
    80003f88:	0000c697          	auipc	a3,0xc
    80003f8c:	71068693          	addi	a3,a3,1808 # 80010698 <p>
    80003f90:	0006a703          	lw	a4,0(a3)
    80003f94:	00800613          	li	a2,8
    80003f98:	0017079b          	addiw	a5,a4,1
    80003f9c:	00f6a023          	sw	a5,0(a3)
    80003fa0:	fee640e3          	blt	a2,a4,80003f80 <psgio_read+0xc>
    80003fa4:	00002717          	auipc	a4,0x2
    80003fa8:	f5470713          	addi	a4,a4,-172 # 80005ef8 <MAP>
    80003fac:	00279793          	slli	a5,a5,0x2
    80003fb0:	00f707b3          	add	a5,a4,a5
    80003fb4:	0007a783          	lw	a5,0(a5)
    80003fb8:	00279713          	slli	a4,a5,0x2
    80003fbc:	00160797          	auipc	a5,0x160
    80003fc0:	fa478793          	addi	a5,a5,-92 # 80163f60 <key_state>
    80003fc4:	00e787b3          	add	a5,a5,a4
    80003fc8:	0007c503          	lbu	a0,0(a5)
    80003fcc:	00008067          	ret

0000000080003fd0 <psgio_write>:
    80003fd0:	000047b7          	lui	a5,0x4
    80003fd4:	01678793          	addi	a5,a5,22 # 4016 <_entry_offset+0x4016>
    80003fd8:	0015f593          	andi	a1,a1,1
    80003fdc:	00160717          	auipc	a4,0x160
    80003fe0:	3ac70713          	addi	a4,a4,940 # 80164388 <prev_write.1560>
    80003fe4:	00f50663          	beq	a0,a5,80003ff0 <psgio_write+0x20>
    80003fe8:	00b70023          	sb	a1,0(a4)
    80003fec:	00008067          	ret
    80003ff0:	fe059ce3          	bnez	a1,80003fe8 <psgio_write+0x18>
    80003ff4:	00074683          	lbu	a3,0(a4)
    80003ff8:	00100793          	li	a5,1
    80003ffc:	fef696e3          	bne	a3,a5,80003fe8 <psgio_write+0x18>
    80004000:	0000c797          	auipc	a5,0xc
    80004004:	6807ac23          	sw	zero,1688(a5) # 80010698 <p>
    80004008:	fe1ff06f          	j	80003fe8 <psgio_write+0x18>

000000008000400c <psg_detect_key>:
    8000400c:	fe010113          	addi	sp,sp,-32
    80004010:	00813823          	sd	s0,16(sp)
    80004014:	00113c23          	sd	ra,24(sp)
    80004018:	00160417          	auipc	s0,0x160
    8000401c:	f4840413          	addi	s0,s0,-184 # 80163f60 <key_state>
    80004020:	0080006f          	j	80004028 <psg_detect_key+0x1c>
    80004024:	00d7a023          	sw	a3,0(a5)
    80004028:	00810593          	addi	a1,sp,8
    8000402c:	00800513          	li	a0,8
    80004030:	150000ef          	jal	ra,80004180 <ioe_read>
    80004034:	00c12703          	lw	a4,12(sp)
    80004038:	00814683          	lbu	a3,8(sp)
    8000403c:	00271793          	slli	a5,a4,0x2
    80004040:	00f407b3          	add	a5,s0,a5
    80004044:	fe0710e3          	bnez	a4,80004024 <psg_detect_key+0x18>
    80004048:	01813083          	ld	ra,24(sp)
    8000404c:	01013403          	ld	s0,16(sp)
    80004050:	02010113          	addi	sp,sp,32
    80004054:	00008067          	ret

0000000080004058 <putch>:
    80004058:	100007b7          	lui	a5,0x10000
    8000405c:	00a78023          	sb	a0,0(a5) # 10000000 <_entry_offset+0x10000000>
    80004060:	00008067          	ret

0000000080004064 <halt>:
    80004064:	00050513          	mv	a0,a0
    80004068:	00100073          	ebreak
    8000406c:	0000006f          	j	8000406c <halt+0x8>

0000000080004070 <_trm_init>:
    80004070:	ff010113          	addi	sp,sp,-16
    80004074:	00002517          	auipc	a0,0x2
    80004078:	57450513          	addi	a0,a0,1396 # 800065e8 <mainargs>
    8000407c:	00113423          	sd	ra,8(sp)
    80004080:	b44ff0ef          	jal	ra,800033c4 <main>
    80004084:	00050513          	mv	a0,a0
    80004088:	00100073          	ebreak
    8000408c:	0000006f          	j	8000408c <_trm_init+0x1c>

0000000080004090 <__am_timer_config>:
    80004090:	00100793          	li	a5,1
    80004094:	00f50023          	sb	a5,0(a0)
    80004098:	00f500a3          	sb	a5,1(a0)
    8000409c:	00008067          	ret

00000000800040a0 <__am_input_config>:
    800040a0:	00100793          	li	a5,1
    800040a4:	00f50023          	sb	a5,0(a0)
    800040a8:	00008067          	ret

00000000800040ac <__am_uart_config>:
    800040ac:	00050023          	sb	zero,0(a0)
    800040b0:	00008067          	ret

00000000800040b4 <__am_net_config>:
    800040b4:	00050023          	sb	zero,0(a0)
    800040b8:	00008067          	ret

00000000800040bc <fail>:
    800040bc:	ff010113          	addi	sp,sp,-16
    800040c0:	00813023          	sd	s0,0(sp)
    800040c4:	00113423          	sd	ra,8(sp)
    800040c8:	00002417          	auipc	s0,0x2
    800040cc:	23040413          	addi	s0,s0,560 # 800062f8 <MAP+0x400>
    800040d0:	04100513          	li	a0,65
    800040d4:	00140413          	addi	s0,s0,1
    800040d8:	f81ff0ef          	jal	ra,80004058 <putch>
    800040dc:	00044503          	lbu	a0,0(s0)
    800040e0:	fe051ae3          	bnez	a0,800040d4 <fail+0x18>
    800040e4:	00002417          	auipc	s0,0x2
    800040e8:	22440413          	addi	s0,s0,548 # 80006308 <MAP+0x410>
    800040ec:	06100513          	li	a0,97
    800040f0:	00140413          	addi	s0,s0,1
    800040f4:	f65ff0ef          	jal	ra,80004058 <putch>
    800040f8:	00044503          	lbu	a0,0(s0)
    800040fc:	fe051ae3          	bnez	a0,800040f0 <fail+0x34>
    80004100:	00002417          	auipc	s0,0x2
    80004104:	22840413          	addi	s0,s0,552 # 80006328 <MAP+0x430>
    80004108:	02000513          	li	a0,32
    8000410c:	00140413          	addi	s0,s0,1
    80004110:	f49ff0ef          	jal	ra,80004058 <putch>
    80004114:	00044503          	lbu	a0,0(s0)
    80004118:	fe051ae3          	bnez	a0,8000410c <fail+0x50>
    8000411c:	00100513          	li	a0,1
    80004120:	f45ff0ef          	jal	ra,80004064 <halt>

0000000080004124 <ioe_init>:
    80004124:	ff010113          	addi	sp,sp,-16
    80004128:	00113423          	sd	ra,8(sp)
    8000412c:	0000c797          	auipc	a5,0xc
    80004130:	57478793          	addi	a5,a5,1396 # 800106a0 <lut>
    80004134:	0000d697          	auipc	a3,0xd
    80004138:	96c68693          	addi	a3,a3,-1684 # 80010aa0 <cpu_op_address_mode>
    8000413c:	00000617          	auipc	a2,0x0
    80004140:	f8060613          	addi	a2,a2,-128 # 800040bc <fail>
    80004144:	00c0006f          	j	80004150 <ioe_init+0x2c>
    80004148:	00878793          	addi	a5,a5,8
    8000414c:	00d78c63          	beq	a5,a3,80004164 <ioe_init+0x40>
    80004150:	0007b703          	ld	a4,0(a5)
    80004154:	fe071ae3          	bnez	a4,80004148 <ioe_init+0x24>
    80004158:	00c7b023          	sd	a2,0(a5)
    8000415c:	00878793          	addi	a5,a5,8
    80004160:	fed798e3          	bne	a5,a3,80004150 <ioe_init+0x2c>
    80004164:	0bc000ef          	jal	ra,80004220 <__am_gpu_init>
    80004168:	038000ef          	jal	ra,800041a0 <__am_timer_init>
    8000416c:	1c8000ef          	jal	ra,80004334 <__am_audio_init>
    80004170:	00813083          	ld	ra,8(sp)
    80004174:	00100513          	li	a0,1
    80004178:	01010113          	addi	sp,sp,16
    8000417c:	00008067          	ret

0000000080004180 <ioe_read>:
    80004180:	00351793          	slli	a5,a0,0x3
    80004184:	0000c517          	auipc	a0,0xc
    80004188:	51c50513          	addi	a0,a0,1308 # 800106a0 <lut>
    8000418c:	00f50533          	add	a0,a0,a5
    80004190:	00053303          	ld	t1,0(a0)
    80004194:	00058513          	mv	a0,a1
    80004198:	00030067          	jr	t1

000000008000419c <ioe_write>:
    8000419c:	fe5ff06f          	j	80004180 <ioe_read>

00000000800041a0 <__am_timer_init>:
    800041a0:	100007b7          	lui	a5,0x10000
    800041a4:	0407a023          	sw	zero,64(a5) # 10000040 <_entry_offset+0x10000040>
    800041a8:	0407a223          	sw	zero,68(a5)
    800041ac:	00008067          	ret

00000000800041b0 <__am_timer_uptime>:
    800041b0:	100007b7          	lui	a5,0x10000
    800041b4:	0407a703          	lw	a4,64(a5) # 10000040 <_entry_offset+0x10000040>
    800041b8:	0447a783          	lw	a5,68(a5)
    800041bc:	02071713          	slli	a4,a4,0x20
    800041c0:	02075713          	srli	a4,a4,0x20
    800041c4:	02079793          	slli	a5,a5,0x20
    800041c8:	00e787b3          	add	a5,a5,a4
    800041cc:	00f53023          	sd	a5,0(a0)
    800041d0:	00008067          	ret

00000000800041d4 <__am_timer_rtc>:
    800041d4:	76c00793          	li	a5,1900
    800041d8:	00052a23          	sw	zero,20(a0)
    800041dc:	00052823          	sw	zero,16(a0)
    800041e0:	00052623          	sw	zero,12(a0)
    800041e4:	00052423          	sw	zero,8(a0)
    800041e8:	00052223          	sw	zero,4(a0)
    800041ec:	00f52023          	sw	a5,0(a0)
    800041f0:	00008067          	ret

00000000800041f4 <__am_input_keybrd>:
    800041f4:	100007b7          	lui	a5,0x10000
    800041f8:	0207a783          	lw	a5,32(a5) # 10000020 <_entry_offset+0x10000020>
    800041fc:	ffff86b7          	lui	a3,0xffff8
    80004200:	fff68693          	addi	a3,a3,-1 # ffffffffffff7fff <_end+0xffffffff7fe72fff>
    80004204:	0007879b          	sext.w	a5,a5
    80004208:	40f7d71b          	sraiw	a4,a5,0xf
    8000420c:	00177713          	andi	a4,a4,1
    80004210:	00d7f7b3          	and	a5,a5,a3
    80004214:	00e50023          	sb	a4,0(a0)
    80004218:	00f52223          	sw	a5,4(a0)
    8000421c:	00008067          	ret

0000000080004220 <__am_gpu_init>:
    80004220:	11075737          	lui	a4,0x11075
    80004224:	110007b7          	lui	a5,0x11000
    80004228:	30070713          	addi	a4,a4,768 # 11075300 <_entry_offset+0x11075300>
    8000422c:	0007a023          	sw	zero,0(a5) # 11000000 <_entry_offset+0x11000000>
    80004230:	00478793          	addi	a5,a5,4
    80004234:	fee79ce3          	bne	a5,a4,8000422c <__am_gpu_init+0xc>
    80004238:	00008067          	ret

000000008000423c <__am_gpu_config>:
    8000423c:	00002797          	auipc	a5,0x2
    80004240:	14478793          	addi	a5,a5,324 # 80006380 <MAP+0x488>
    80004244:	0007a603          	lw	a2,0(a5)
    80004248:	0047a683          	lw	a3,4(a5)
    8000424c:	0087a703          	lw	a4,8(a5)
    80004250:	00c7a783          	lw	a5,12(a5)
    80004254:	00c52023          	sw	a2,0(a0)
    80004258:	00d52223          	sw	a3,4(a0)
    8000425c:	00e52423          	sw	a4,8(a0)
    80004260:	00f52623          	sw	a5,12(a0)
    80004264:	00008067          	ret

0000000080004268 <__am_gpu_fbdraw>:
    80004268:	01452283          	lw	t0,20(a0)
    8000426c:	ff010113          	addi	sp,sp,-16
    80004270:	00813423          	sd	s0,8(sp)
    80004274:	00913023          	sd	s1,0(sp)
    80004278:	00853e83          	ld	t4,8(a0)
    8000427c:	00052403          	lw	s0,0(a0)
    80004280:	00452783          	lw	a5,4(a0)
    80004284:	01052f83          	lw	t6,16(a0)
    80004288:	06505e63          	blez	t0,80004304 <__am_gpu_fbdraw+0x9c>
    8000428c:	19000313          	li	t1,400
    80004290:	02f3033b          	mulw	t1,t1,a5
    80004294:	ffff8f1b          	addiw	t5,t6,-1
    80004298:	020f1f13          	slli	t5,t5,0x20
    8000429c:	000f839b          	sext.w	t2,t6
    800042a0:	00000893          	li	a7,0
    800042a4:	00000e13          	li	t3,0
    800042a8:	020f5f13          	srli	t5,t5,0x20
    800042ac:	004e8493          	addi	s1,t4,4
    800042b0:	11000837          	lui	a6,0x11000
    800042b4:	05f05063          	blez	t6,800042f4 <__am_gpu_fbdraw+0x8c>
    800042b8:	00640633          	add	a2,s0,t1
    800042bc:	00289793          	slli	a5,a7,0x2
    800042c0:	011f05b3          	add	a1,t5,a7
    800042c4:	00261613          	slli	a2,a2,0x2
    800042c8:	40f60633          	sub	a2,a2,a5
    800042cc:	00259593          	slli	a1,a1,0x2
    800042d0:	00fe87b3          	add	a5,t4,a5
    800042d4:	009585b3          	add	a1,a1,s1
    800042d8:	41d60633          	sub	a2,a2,t4
    800042dc:	0007a683          	lw	a3,0(a5)
    800042e0:	00c78733          	add	a4,a5,a2
    800042e4:	00e80733          	add	a4,a6,a4
    800042e8:	00d72023          	sw	a3,0(a4)
    800042ec:	00478793          	addi	a5,a5,4
    800042f0:	feb796e3          	bne	a5,a1,800042dc <__am_gpu_fbdraw+0x74>
    800042f4:	001e0e1b          	addiw	t3,t3,1
    800042f8:	1903031b          	addiw	t1,t1,400
    800042fc:	007888bb          	addw	a7,a7,t2
    80004300:	fbc29ae3          	bne	t0,t3,800042b4 <__am_gpu_fbdraw+0x4c>
    80004304:	01854783          	lbu	a5,24(a0)
    80004308:	00078863          	beqz	a5,80004318 <__am_gpu_fbdraw+0xb0>
    8000430c:	100007b7          	lui	a5,0x10000
    80004310:	00100713          	li	a4,1
    80004314:	10e7a223          	sw	a4,260(a5) # 10000104 <_entry_offset+0x10000104>
    80004318:	00813403          	ld	s0,8(sp)
    8000431c:	00013483          	ld	s1,0(sp)
    80004320:	01010113          	addi	sp,sp,16
    80004324:	00008067          	ret

0000000080004328 <__am_gpu_status>:
    80004328:	00100793          	li	a5,1
    8000432c:	00f50023          	sb	a5,0(a0)
    80004330:	00008067          	ret

0000000080004334 <__am_audio_init>:
    80004334:	00008067          	ret

0000000080004338 <__am_audio_config>:
    80004338:	00050023          	sb	zero,0(a0)
    8000433c:	00008067          	ret

0000000080004340 <__am_audio_ctrl>:
    80004340:	00008067          	ret

0000000080004344 <__am_audio_status>:
    80004344:	00052023          	sw	zero,0(a0)
    80004348:	00008067          	ret

000000008000434c <__am_audio_play>:
    8000434c:	00008067          	ret

0000000080004350 <__am_disk_config>:
    80004350:	00050023          	sb	zero,0(a0)
    80004354:	00008067          	ret

0000000080004358 <__am_disk_status>:
    80004358:	00008067          	ret

000000008000435c <__am_disk_blkio>:
    8000435c:	00008067          	ret

0000000080004360 <memcpy>:
    80004360:	02060063          	beqz	a2,80004380 <memcpy+0x20>
    80004364:	00c50633          	add	a2,a0,a2
    80004368:	00050793          	mv	a5,a0
    8000436c:	0005c703          	lbu	a4,0(a1)
    80004370:	00178793          	addi	a5,a5,1
    80004374:	00158593          	addi	a1,a1,1
    80004378:	fee78fa3          	sb	a4,-1(a5)
    8000437c:	fec798e3          	bne	a5,a2,8000436c <memcpy+0xc>
    80004380:	00008067          	ret

0000000080004384 <memcmp>:
    80004384:	02060a63          	beqz	a2,800043b8 <memcmp+0x34>
    80004388:	00050793          	mv	a5,a0
    8000438c:	00c50633          	add	a2,a0,a2
    80004390:	0080006f          	j	80004398 <memcmp+0x14>
    80004394:	02c78063          	beq	a5,a2,800043b4 <memcmp+0x30>
    80004398:	0007c503          	lbu	a0,0(a5)
    8000439c:	0005c703          	lbu	a4,0(a1)
    800043a0:	00178793          	addi	a5,a5,1
    800043a4:	00158593          	addi	a1,a1,1
    800043a8:	40e5053b          	subw	a0,a0,a4
    800043ac:	fe0504e3          	beqz	a0,80004394 <memcmp+0x10>
    800043b0:	00008067          	ret
    800043b4:	00008067          	ret
    800043b8:	00000513          	li	a0,0
    800043bc:	00008067          	ret

00000000800043c0 <_out_null>:
    800043c0:	00008067          	ret

00000000800043c4 <_out_rev>:
    800043c4:	fa010113          	addi	sp,sp,-96
    800043c8:	04913423          	sd	s1,72(sp)
    800043cc:	05213023          	sd	s2,64(sp)
    800043d0:	03313c23          	sd	s3,56(sp)
    800043d4:	03413823          	sd	s4,48(sp)
    800043d8:	03513423          	sd	s5,40(sp)
    800043dc:	01713c23          	sd	s7,24(sp)
    800043e0:	01813823          	sd	s8,16(sp)
    800043e4:	01913423          	sd	s9,8(sp)
    800043e8:	00060c13          	mv	s8,a2
    800043ec:	01a13023          	sd	s10,0(sp)
    800043f0:	04113c23          	sd	ra,88(sp)
    800043f4:	04813823          	sd	s0,80(sp)
    800043f8:	03613023          	sd	s6,32(sp)
    800043fc:	0038f613          	andi	a2,a7,3
    80004400:	00088c93          	mv	s9,a7
    80004404:	00050493          	mv	s1,a0
    80004408:	00058913          	mv	s2,a1
    8000440c:	00068993          	mv	s3,a3
    80004410:	00070a93          	mv	s5,a4
    80004414:	00078d13          	mv	s10,a5
    80004418:	00080b93          	mv	s7,a6
    8000441c:	000c0a13          	mv	s4,s8
    80004420:	02061c63          	bnez	a2,80004458 <_out_rev+0x94>
    80004424:	02081793          	slli	a5,a6,0x20
    80004428:	0207d793          	srli	a5,a5,0x20
    8000442c:	41a78a33          	sub	s4,a5,s10
    80004430:	018a0a33          	add	s4,s4,s8
    80004434:	000c0413          	mv	s0,s8
    80004438:	0efd7063          	bgeu	s10,a5,80004518 <_out_rev+0x154>
    8000443c:	00040613          	mv	a2,s0
    80004440:	00098693          	mv	a3,s3
    80004444:	00140413          	addi	s0,s0,1
    80004448:	00090593          	mv	a1,s2
    8000444c:	02000513          	li	a0,32
    80004450:	000480e7          	jalr	s1
    80004454:	ff4414e3          	bne	s0,s4,8000443c <_out_rev+0x78>
    80004458:	01aa8433          	add	s0,s5,s10
    8000445c:	008a0b33          	add	s6,s4,s0
    80004460:	020d0263          	beqz	s10,80004484 <_out_rev+0xc0>
    80004464:	fff44503          	lbu	a0,-1(s0)
    80004468:	408b0633          	sub	a2,s6,s0
    8000446c:	00098693          	mv	a3,s3
    80004470:	fff40413          	addi	s0,s0,-1
    80004474:	00090593          	mv	a1,s2
    80004478:	000480e7          	jalr	s1
    8000447c:	fe8a94e3          	bne	s5,s0,80004464 <_out_rev+0xa0>
    80004480:	01aa0a33          	add	s4,s4,s10
    80004484:	002cfc93          	andi	s9,s9,2
    80004488:	040c8a63          	beqz	s9,800044dc <_out_rev+0x118>
    8000448c:	020b9b93          	slli	s7,s7,0x20
    80004490:	418a0433          	sub	s0,s4,s8
    80004494:	020bdb93          	srli	s7,s7,0x20
    80004498:	05747263          	bgeu	s0,s7,800044dc <_out_rev+0x118>
    8000449c:	01840633          	add	a2,s0,s8
    800044a0:	00098693          	mv	a3,s3
    800044a4:	00140413          	addi	s0,s0,1
    800044a8:	00090593          	mv	a1,s2
    800044ac:	02000513          	li	a0,32
    800044b0:	000480e7          	jalr	s1
    800044b4:	ff7464e3          	bltu	s0,s7,8000449c <_out_rev+0xd8>
    800044b8:	418a07b3          	sub	a5,s4,s8
    800044bc:	00178793          	addi	a5,a5,1
    800044c0:	00000713          	li	a4,0
    800044c4:	00fbe863          	bltu	s7,a5,800044d4 <_out_rev+0x110>
    800044c8:	fffb8a93          	addi	s5,s7,-1
    800044cc:	018a8ab3          	add	s5,s5,s8
    800044d0:	414a8733          	sub	a4,s5,s4
    800044d4:	001a0a13          	addi	s4,s4,1 # 2001 <_entry_offset+0x2001>
    800044d8:	00ea0a33          	add	s4,s4,a4
    800044dc:	05813083          	ld	ra,88(sp)
    800044e0:	05013403          	ld	s0,80(sp)
    800044e4:	04813483          	ld	s1,72(sp)
    800044e8:	04013903          	ld	s2,64(sp)
    800044ec:	03813983          	ld	s3,56(sp)
    800044f0:	02813a83          	ld	s5,40(sp)
    800044f4:	02013b03          	ld	s6,32(sp)
    800044f8:	01813b83          	ld	s7,24(sp)
    800044fc:	01013c03          	ld	s8,16(sp)
    80004500:	00813c83          	ld	s9,8(sp)
    80004504:	00013d03          	ld	s10,0(sp)
    80004508:	000a0513          	mv	a0,s4
    8000450c:	03013a03          	ld	s4,48(sp)
    80004510:	06010113          	addi	sp,sp,96
    80004514:	00008067          	ret
    80004518:	000c0a13          	mv	s4,s8
    8000451c:	f3dff06f          	j	80004458 <_out_rev+0x94>

0000000080004520 <_ntoa_format>:
    80004520:	ff010113          	addi	sp,sp,-16
    80004524:	02012383          	lw	t2,32(sp)
    80004528:	00813423          	sd	s0,8(sp)
    8000452c:	00913023          	sd	s1,0(sp)
    80004530:	0103f313          	andi	t1,t2,16
    80004534:	0023fe13          	andi	t3,t2,2
    80004538:	01012483          	lw	s1,16(sp)
    8000453c:	01812403          	lw	s0,24(sp)
    80004540:	00080293          	mv	t0,a6
    80004544:	00030f9b          	sext.w	t6,t1
    80004548:	060e1c63          	bnez	t3,800045c0 <_ntoa_format+0xa0>
    8000454c:	02049e13          	slli	t3,s1,0x20
    80004550:	0013f813          	andi	a6,t2,1
    80004554:	020e5e13          	srli	t3,t3,0x20
    80004558:	14041863          	bnez	s0,800046a8 <_ntoa_format+0x188>
    8000455c:	03c7f663          	bgeu	a5,t3,80004588 <_ntoa_format+0x68>
    80004560:	02000313          	li	t1,32
    80004564:	0a678a63          	beq	a5,t1,80004618 <_ntoa_format+0xf8>
    80004568:	03000e93          	li	t4,48
    8000456c:	02000f13          	li	t5,32
    80004570:	0080006f          	j	80004578 <_ntoa_format+0x58>
    80004574:	01e78a63          	beq	a5,t5,80004588 <_ntoa_format+0x68>
    80004578:	00178793          	addi	a5,a5,1
    8000457c:	00f70333          	add	t1,a4,a5
    80004580:	ffd30fa3          	sb	t4,-1(t1)
    80004584:	ffc7e8e3          	bltu	a5,t3,80004574 <_ntoa_format+0x54>
    80004588:	02080c63          	beqz	a6,800045c0 <_ntoa_format+0xa0>
    8000458c:	02041e13          	slli	t3,s0,0x20
    80004590:	020e5e13          	srli	t3,t3,0x20
    80004594:	03c7f663          	bgeu	a5,t3,800045c0 <_ntoa_format+0xa0>
    80004598:	02000813          	li	a6,32
    8000459c:	23078863          	beq	a5,a6,800047cc <_ntoa_format+0x2ac>
    800045a0:	03000e93          	li	t4,48
    800045a4:	02000f13          	li	t5,32
    800045a8:	0080006f          	j	800045b0 <_ntoa_format+0x90>
    800045ac:	07e78863          	beq	a5,t5,8000461c <_ntoa_format+0xfc>
    800045b0:	00178793          	addi	a5,a5,1
    800045b4:	00f70333          	add	t1,a4,a5
    800045b8:	ffd30fa3          	sb	t4,-1(t1)
    800045bc:	ffc798e3          	bne	a5,t3,800045ac <_ntoa_format+0x8c>
    800045c0:	0a0f8c63          	beqz	t6,80004678 <_ntoa_format+0x158>
    800045c4:	4003f813          	andi	a6,t2,1024
    800045c8:	10081c63          	bnez	a6,800046e0 <_ntoa_format+0x1c0>
    800045cc:	0e079e63          	bnez	a5,800046c8 <_ntoa_format+0x1a8>
    800045d0:	01000793          	li	a5,16
    800045d4:	1cf88263          	beq	a7,a5,80004798 <_ntoa_format+0x278>
    800045d8:	00200793          	li	a5,2
    800045dc:	22f88663          	beq	a7,a5,80004808 <_ntoa_format+0x2e8>
    800045e0:	03000793          	li	a5,48
    800045e4:	00f70023          	sb	a5,0(a4)
    800045e8:	00100793          	li	a5,1
    800045ec:	08028c63          	beqz	t0,80004684 <_ntoa_format+0x164>
    800045f0:	00f70833          	add	a6,a4,a5
    800045f4:	02d00893          	li	a7,45
    800045f8:	01180023          	sb	a7,0(a6) # 11000000 <_entry_offset+0x11000000>
    800045fc:	00178793          	addi	a5,a5,1
    80004600:	00040813          	mv	a6,s0
    80004604:	00813403          	ld	s0,8(sp)
    80004608:	00013483          	ld	s1,0(sp)
    8000460c:	00038893          	mv	a7,t2
    80004610:	01010113          	addi	sp,sp,16
    80004614:	db1ff06f          	j	800043c4 <_out_rev>
    80004618:	0e080c63          	beqz	a6,80004710 <_ntoa_format+0x1f0>
    8000461c:	02000793          	li	a5,32
    80004620:	fe0f80e3          	beqz	t6,80004600 <_ntoa_format+0xe0>
    80004624:	4003f813          	andi	a6,t2,1024
    80004628:	1a081c63          	bnez	a6,800047e0 <_ntoa_format+0x2c0>
    8000462c:	02000793          	li	a5,32
    80004630:	0af49263          	bne	s1,a5,800046d4 <_ntoa_format+0x1b4>
    80004634:	02000793          	li	a5,32
    80004638:	01f00813          	li	a6,31
    8000463c:	01000313          	li	t1,16
    80004640:	1c688c63          	beq	a7,t1,80004818 <_ntoa_format+0x2f8>
    80004644:	00200313          	li	t1,2
    80004648:	00080793          	mv	a5,a6
    8000464c:	00689e63          	bne	a7,t1,80004668 <_ntoa_format+0x148>
    80004650:	010708b3          	add	a7,a4,a6
    80004654:	00180793          	addi	a5,a6,1
    80004658:	06200813          	li	a6,98
    8000465c:	01088023          	sb	a6,0(a7)
    80004660:	02000813          	li	a6,32
    80004664:	f9078ee3          	beq	a5,a6,80004600 <_ntoa_format+0xe0>
    80004668:	00f70833          	add	a6,a4,a5
    8000466c:	03000893          	li	a7,48
    80004670:	01180023          	sb	a7,0(a6)
    80004674:	00178793          	addi	a5,a5,1
    80004678:	02000813          	li	a6,32
    8000467c:	f90782e3          	beq	a5,a6,80004600 <_ntoa_format+0xe0>
    80004680:	f60298e3          	bnez	t0,800045f0 <_ntoa_format+0xd0>
    80004684:	0043f813          	andi	a6,t2,4
    80004688:	0a081863          	bnez	a6,80004738 <_ntoa_format+0x218>
    8000468c:	0083f813          	andi	a6,t2,8
    80004690:	f60808e3          	beqz	a6,80004600 <_ntoa_format+0xe0>
    80004694:	00f70833          	add	a6,a4,a5
    80004698:	02000893          	li	a7,32
    8000469c:	01180023          	sb	a7,0(a6)
    800046a0:	00178793          	addi	a5,a5,1
    800046a4:	f5dff06f          	j	80004600 <_ntoa_format+0xe0>
    800046a8:	04080e63          	beqz	a6,80004704 <_ntoa_format+0x1e4>
    800046ac:	0c029c63          	bnez	t0,80004784 <_ntoa_format+0x264>
    800046b0:	00c3f313          	andi	t1,t2,12
    800046b4:	0c031863          	bnez	t1,80004784 <_ntoa_format+0x264>
    800046b8:	edc7fae3          	bgeu	a5,t3,8000458c <_ntoa_format+0x6c>
    800046bc:	02000313          	li	t1,32
    800046c0:	ea6794e3          	bne	a5,t1,80004568 <_ntoa_format+0x48>
    800046c4:	f59ff06f          	j	8000461c <_ntoa_format+0xfc>
    800046c8:	02049493          	slli	s1,s1,0x20
    800046cc:	0204d493          	srli	s1,s1,0x20
    800046d0:	0af48e63          	beq	s1,a5,8000478c <_ntoa_format+0x26c>
    800046d4:	02041813          	slli	a6,s0,0x20
    800046d8:	02085813          	srli	a6,a6,0x20
    800046dc:	0af80863          	beq	a6,a5,8000478c <_ntoa_format+0x26c>
    800046e0:	01000813          	li	a6,16
    800046e4:	07088e63          	beq	a7,a6,80004760 <_ntoa_format+0x240>
    800046e8:	00200813          	li	a6,2
    800046ec:	f7089ae3          	bne	a7,a6,80004660 <_ntoa_format+0x140>
    800046f0:	02000813          	li	a6,32
    800046f4:	f10786e3          	beq	a5,a6,80004600 <_ntoa_format+0xe0>
    800046f8:	00f708b3          	add	a7,a4,a5
    800046fc:	00178793          	addi	a5,a5,1
    80004700:	f59ff06f          	j	80004658 <_ntoa_format+0x138>
    80004704:	ebc7fee3          	bgeu	a5,t3,800045c0 <_ntoa_format+0xa0>
    80004708:	02000313          	li	t1,32
    8000470c:	e4679ee3          	bne	a5,t1,80004568 <_ntoa_format+0x48>
    80004710:	020f8063          	beqz	t6,80004730 <_ntoa_format+0x210>
    80004714:	4003f793          	andi	a5,t2,1024
    80004718:	f0078ae3          	beqz	a5,8000462c <_ntoa_format+0x10c>
    8000471c:	01000793          	li	a5,16
    80004720:	00f88863          	beq	a7,a5,80004730 <_ntoa_format+0x210>
    80004724:	00200813          	li	a6,2
    80004728:	02000793          	li	a5,32
    8000472c:	ed088ae3          	beq	a7,a6,80004600 <_ntoa_format+0xe0>
    80004730:	02000793          	li	a5,32
    80004734:	ecdff06f          	j	80004600 <_ntoa_format+0xe0>
    80004738:	00f70833          	add	a6,a4,a5
    8000473c:	02b00893          	li	a7,43
    80004740:	01180023          	sb	a7,0(a6)
    80004744:	00040813          	mv	a6,s0
    80004748:	00813403          	ld	s0,8(sp)
    8000474c:	00013483          	ld	s1,0(sp)
    80004750:	00178793          	addi	a5,a5,1
    80004754:	00038893          	mv	a7,t2
    80004758:	01010113          	addi	sp,sp,16
    8000475c:	c69ff06f          	j	800043c4 <_out_rev>
    80004760:	0203f813          	andi	a6,t2,32
    80004764:	04080663          	beqz	a6,800047b0 <_ntoa_format+0x290>
    80004768:	02000813          	li	a6,32
    8000476c:	e9078ae3          	beq	a5,a6,80004600 <_ntoa_format+0xe0>
    80004770:	00f70833          	add	a6,a4,a5
    80004774:	05800893          	li	a7,88
    80004778:	01180023          	sb	a7,0(a6)
    8000477c:	00178793          	addi	a5,a5,1
    80004780:	ee1ff06f          	j	80004660 <_ntoa_format+0x140>
    80004784:	fff4041b          	addiw	s0,s0,-1
    80004788:	f31ff06f          	j	800046b8 <_ntoa_format+0x198>
    8000478c:	fff78813          	addi	a6,a5,-1
    80004790:	e40800e3          	beqz	a6,800045d0 <_ntoa_format+0xb0>
    80004794:	ea9ff06f          	j	8000463c <_ntoa_format+0x11c>
    80004798:	0203f793          	andi	a5,t2,32
    8000479c:	04079e63          	bnez	a5,800047f8 <_ntoa_format+0x2d8>
    800047a0:	07800793          	li	a5,120
    800047a4:	00f70023          	sb	a5,0(a4)
    800047a8:	00100793          	li	a5,1
    800047ac:	ebdff06f          	j	80004668 <_ntoa_format+0x148>
    800047b0:	02000813          	li	a6,32
    800047b4:	f7078ee3          	beq	a5,a6,80004730 <_ntoa_format+0x210>
    800047b8:	00f70833          	add	a6,a4,a5
    800047bc:	00178793          	addi	a5,a5,1
    800047c0:	07800893          	li	a7,120
    800047c4:	01180023          	sb	a7,0(a6)
    800047c8:	e99ff06f          	j	80004660 <_ntoa_format+0x140>
    800047cc:	e20f8ae3          	beqz	t6,80004600 <_ntoa_format+0xe0>
    800047d0:	4003f813          	andi	a6,t2,1024
    800047d4:	06081263          	bnez	a6,80004838 <_ntoa_format+0x318>
    800047d8:	06f48c63          	beq	s1,a5,80004850 <_ntoa_format+0x330>
    800047dc:	e4f40ee3          	beq	s0,a5,80004638 <_ntoa_format+0x118>
    800047e0:	01000813          	li	a6,16
    800047e4:	e1089ee3          	bne	a7,a6,80004600 <_ntoa_format+0xe0>
    800047e8:	0203f813          	andi	a6,t2,32
    800047ec:	e0081ae3          	bnez	a6,80004600 <_ntoa_format+0xe0>
    800047f0:	02000793          	li	a5,32
    800047f4:	e0dff06f          	j	80004600 <_ntoa_format+0xe0>
    800047f8:	05800793          	li	a5,88
    800047fc:	00f70023          	sb	a5,0(a4)
    80004800:	00100793          	li	a5,1
    80004804:	e65ff06f          	j	80004668 <_ntoa_format+0x148>
    80004808:	06200793          	li	a5,98
    8000480c:	00f70023          	sb	a5,0(a4)
    80004810:	00100793          	li	a5,1
    80004814:	e55ff06f          	j	80004668 <_ntoa_format+0x148>
    80004818:	0203f893          	andi	a7,t2,32
    8000481c:	ffe78813          	addi	a6,a5,-2
    80004820:	00089863          	bnez	a7,80004830 <_ntoa_format+0x310>
    80004824:	01070833          	add	a6,a4,a6
    80004828:	fff78793          	addi	a5,a5,-1
    8000482c:	f95ff06f          	j	800047c0 <_ntoa_format+0x2a0>
    80004830:	00080793          	mv	a5,a6
    80004834:	f3dff06f          	j	80004770 <_ntoa_format+0x250>
    80004838:	01000813          	li	a6,16
    8000483c:	fb0886e3          	beq	a7,a6,800047e8 <_ntoa_format+0x2c8>
    80004840:	00200813          	li	a6,2
    80004844:	db088ee3          	beq	a7,a6,80004600 <_ntoa_format+0xe0>
    80004848:	02000793          	li	a5,32
    8000484c:	db5ff06f          	j	80004600 <_ntoa_format+0xe0>
    80004850:	01000813          	li	a6,16
    80004854:	fd0882e3          	beq	a7,a6,80004818 <_ntoa_format+0x2f8>
    80004858:	00200793          	li	a5,2
    8000485c:	00f88663          	beq	a7,a5,80004868 <_ntoa_format+0x348>
    80004860:	01f00793          	li	a5,31
    80004864:	e05ff06f          	j	80004668 <_ntoa_format+0x148>
    80004868:	01f00813          	li	a6,31
    8000486c:	de5ff06f          	j	80004650 <_ntoa_format+0x130>

0000000080004870 <_ntoa_long>:
    80004870:	fb010113          	addi	sp,sp,-80
    80004874:	04813023          	sd	s0,64(sp)
    80004878:	04113423          	sd	ra,72(sp)
    8000487c:	00080e93          	mv	t4,a6
    80004880:	05812403          	lw	s0,88(sp)
    80004884:	00070e13          	mv	t3,a4
    80004888:	00078813          	mv	a6,a5
    8000488c:	00071863          	bnez	a4,8000489c <_ntoa_long+0x2c>
    80004890:	40047793          	andi	a5,s0,1024
    80004894:	fef47413          	andi	s0,s0,-17
    80004898:	08079863          	bnez	a5,80004928 <_ntoa_long+0xb8>
    8000489c:	02047713          	andi	a4,s0,32
    800048a0:	06100293          	li	t0,97
    800048a4:	06071e63          	bnez	a4,80004920 <_ntoa_long+0xb0>
    800048a8:	00000793          	li	a5,0
    800048ac:	02010713          	addi	a4,sp,32
    800048b0:	00900393          	li	t2,9
    800048b4:	ff62829b          	addiw	t0,t0,-10
    800048b8:	02000093          	li	ra,32
    800048bc:	00c0006f          	j	800048c8 <_ntoa_long+0x58>
    800048c0:	02178c63          	beq	a5,ra,800048f8 <_ntoa_long+0x88>
    800048c4:	00030e13          	mv	t3,t1
    800048c8:	03de7f33          	remu	t5,t3,t4
    800048cc:	0fff7313          	andi	t1,t5,255
    800048d0:	03030f9b          	addiw	t6,t1,48
    800048d4:	0062833b          	addw	t1,t0,t1
    800048d8:	0ff37313          	andi	t1,t1,255
    800048dc:	01e3e463          	bltu	t2,t5,800048e4 <_ntoa_long+0x74>
    800048e0:	0ffff313          	andi	t1,t6,255
    800048e4:	00178793          	addi	a5,a5,1
    800048e8:	00f70f33          	add	t5,a4,a5
    800048ec:	fe6f0fa3          	sb	t1,-1(t5)
    800048f0:	03de5333          	divu	t1,t3,t4
    800048f4:	fdde76e3          	bgeu	t3,t4,800048c0 <_ntoa_long+0x50>
    800048f8:	05012303          	lw	t1,80(sp)
    800048fc:	00813823          	sd	s0,16(sp)
    80004900:	01113023          	sd	a7,0(sp)
    80004904:	00613423          	sd	t1,8(sp)
    80004908:	000e889b          	sext.w	a7,t4
    8000490c:	c15ff0ef          	jal	ra,80004520 <_ntoa_format>
    80004910:	04813083          	ld	ra,72(sp)
    80004914:	04013403          	ld	s0,64(sp)
    80004918:	05010113          	addi	sp,sp,80
    8000491c:	00008067          	ret
    80004920:	04100293          	li	t0,65
    80004924:	f85ff06f          	j	800048a8 <_ntoa_long+0x38>
    80004928:	00000793          	li	a5,0
    8000492c:	02010713          	addi	a4,sp,32
    80004930:	fc9ff06f          	j	800048f8 <_ntoa_long+0x88>

0000000080004934 <_ntoa_long_long>:
    80004934:	fb010113          	addi	sp,sp,-80
    80004938:	04813023          	sd	s0,64(sp)
    8000493c:	04113423          	sd	ra,72(sp)
    80004940:	00080e93          	mv	t4,a6
    80004944:	05812403          	lw	s0,88(sp)
    80004948:	00070e13          	mv	t3,a4
    8000494c:	00078813          	mv	a6,a5
    80004950:	00071863          	bnez	a4,80004960 <_ntoa_long_long+0x2c>
    80004954:	40047793          	andi	a5,s0,1024
    80004958:	fef47413          	andi	s0,s0,-17
    8000495c:	08079863          	bnez	a5,800049ec <_ntoa_long_long+0xb8>
    80004960:	02047713          	andi	a4,s0,32
    80004964:	06100293          	li	t0,97
    80004968:	06071e63          	bnez	a4,800049e4 <_ntoa_long_long+0xb0>
    8000496c:	00000793          	li	a5,0
    80004970:	02010713          	addi	a4,sp,32
    80004974:	00900393          	li	t2,9
    80004978:	ff62829b          	addiw	t0,t0,-10
    8000497c:	02000093          	li	ra,32
    80004980:	00c0006f          	j	8000498c <_ntoa_long_long+0x58>
    80004984:	02178c63          	beq	a5,ra,800049bc <_ntoa_long_long+0x88>
    80004988:	00030e13          	mv	t3,t1
    8000498c:	03de7f33          	remu	t5,t3,t4
    80004990:	0fff7313          	andi	t1,t5,255
    80004994:	03030f9b          	addiw	t6,t1,48
    80004998:	0062833b          	addw	t1,t0,t1
    8000499c:	0ff37313          	andi	t1,t1,255
    800049a0:	01e3e463          	bltu	t2,t5,800049a8 <_ntoa_long_long+0x74>
    800049a4:	0ffff313          	andi	t1,t6,255
    800049a8:	00178793          	addi	a5,a5,1
    800049ac:	00f70f33          	add	t5,a4,a5
    800049b0:	fe6f0fa3          	sb	t1,-1(t5)
    800049b4:	03de5333          	divu	t1,t3,t4
    800049b8:	fdde76e3          	bgeu	t3,t4,80004984 <_ntoa_long_long+0x50>
    800049bc:	05012303          	lw	t1,80(sp)
    800049c0:	00813823          	sd	s0,16(sp)
    800049c4:	01113023          	sd	a7,0(sp)
    800049c8:	00613423          	sd	t1,8(sp)
    800049cc:	000e889b          	sext.w	a7,t4
    800049d0:	b51ff0ef          	jal	ra,80004520 <_ntoa_format>
    800049d4:	04813083          	ld	ra,72(sp)
    800049d8:	04013403          	ld	s0,64(sp)
    800049dc:	05010113          	addi	sp,sp,80
    800049e0:	00008067          	ret
    800049e4:	04100293          	li	t0,65
    800049e8:	f85ff06f          	j	8000496c <_ntoa_long_long+0x38>
    800049ec:	00000793          	li	a5,0
    800049f0:	02010713          	addi	a4,sp,32
    800049f4:	fc9ff06f          	j	800049bc <_ntoa_long_long+0x88>

00000000800049f8 <_out_char>:
    800049f8:	00051463          	bnez	a0,80004a00 <_out_char+0x8>
    800049fc:	00008067          	ret
    80004a00:	e58ff06f          	j	80004058 <putch>

0000000080004a04 <_ftoa>:
    80004a04:	a2a52353          	feq.d	t1,fa0,fa0
    80004a08:	fc010113          	addi	sp,sp,-64
    80004a0c:	02113c23          	sd	ra,56(sp)
    80004a10:	02813823          	sd	s0,48(sp)
    80004a14:	02913423          	sd	s1,40(sp)
    80004a18:	00080893          	mv	a7,a6
    80004a1c:	1c030663          	beqz	t1,80004be8 <_ftoa+0x1e4>
    80004a20:	00002817          	auipc	a6,0x2
    80004a24:	bd083787          	fld	fa5,-1072(a6) # 800065f0 <mainargs+0x8>
    80004a28:	a2f51853          	flt.d	a6,fa0,fa5
    80004a2c:	2c081a63          	bnez	a6,80004d00 <_ftoa+0x2fc>
    80004a30:	00068093          	mv	ra,a3
    80004a34:	00002697          	auipc	a3,0x2
    80004a38:	bc46b787          	fld	fa5,-1084(a3) # 800065f8 <mainargs+0x10>
    80004a3c:	a2a796d3          	flt.d	a3,fa5,fa0
    80004a40:	00050f93          	mv	t6,a0
    80004a44:	00058293          	mv	t0,a1
    80004a48:	00060393          	mv	t2,a2
    80004a4c:	14069c63          	bnez	a3,80004ba4 <_ftoa+0x1a0>
    80004a50:	00002697          	auipc	a3,0x2
    80004a54:	bb06b787          	fld	fa5,-1104(a3) # 80006600 <mainargs+0x18>
    80004a58:	a2a796d3          	flt.d	a3,fa5,fa0
    80004a5c:	26069c63          	bnez	a3,80004cd4 <_ftoa+0x2d0>
    80004a60:	00002697          	auipc	a3,0x2
    80004a64:	ba86b787          	fld	fa5,-1112(a3) # 80006608 <mainargs+0x20>
    80004a68:	a2f516d3          	flt.d	a3,fa0,fa5
    80004a6c:	26069463          	bnez	a3,80004cd4 <_ftoa+0x2d0>
    80004a70:	f20007d3          	fmv.d.x	fa5,zero
    80004a74:	00000513          	li	a0,0
    80004a78:	a2f516d3          	flt.d	a3,fa0,fa5
    80004a7c:	24069663          	bnez	a3,80004cc8 <_ftoa+0x2c4>
    80004a80:	4008f693          	andi	a3,a7,1024
    80004a84:	00069463          	bnez	a3,80004a8c <_ftoa+0x88>
    80004a88:	00600713          	li	a4,6
    80004a8c:	00000313          	li	t1,0
    80004a90:	00900693          	li	a3,9
    80004a94:	03000593          	li	a1,48
    80004a98:	02000613          	li	a2,32
    80004a9c:	00e6fc63          	bgeu	a3,a4,80004ab4 <_ftoa+0xb0>
    80004aa0:	00130313          	addi	t1,t1,1
    80004aa4:	00610e33          	add	t3,sp,t1
    80004aa8:	febe0fa3          	sb	a1,-1(t3)
    80004aac:	fff7071b          	addiw	a4,a4,-1
    80004ab0:	fec316e3          	bne	t1,a2,80004a9c <_ftoa+0x98>
    80004ab4:	c20515d3          	fcvt.w.d	a1,fa0,rtz
    80004ab8:	02071693          	slli	a3,a4,0x20
    80004abc:	0206d693          	srli	a3,a3,0x20
    80004ac0:	d20587d3          	fcvt.d.w	fa5,a1
    80004ac4:	00369693          	slli	a3,a3,0x3
    80004ac8:	00002617          	auipc	a2,0x2
    80004acc:	ac860613          	addi	a2,a2,-1336 # 80006590 <pow10.1647>
    80004ad0:	0af577d3          	fsub.d	fa5,fa0,fa5
    80004ad4:	00d606b3          	add	a3,a2,a3
    80004ad8:	0006b707          	fld	fa4,0(a3)
    80004adc:	00002697          	auipc	a3,0x2
    80004ae0:	b346b687          	fld	fa3,-1228(a3) # 80006610 <mainargs+0x28>
    80004ae4:	00058e1b          	sext.w	t3,a1
    80004ae8:	12e7f7d3          	fmul.d	fa5,fa5,fa4
    80004aec:	c2379f53          	fcvt.lu.d	t5,fa5,rtz
    80004af0:	d23f7653          	fcvt.d.lu	fa2,t5
    80004af4:	0ac7f7d3          	fsub.d	fa5,fa5,fa2
    80004af8:	a2f696d3          	flt.d	a3,fa3,fa5
    80004afc:	10068a63          	beqz	a3,80004c10 <_ftoa+0x20c>
    80004b00:	001f0f13          	addi	t5,t5,1
    80004b04:	d23f77d3          	fcvt.d.lu	fa5,t5
    80004b08:	a2f706d3          	fle.d	a3,fa4,fa5
    80004b0c:	00068663          	beqz	a3,80004b18 <_ftoa+0x114>
    80004b10:	00158e1b          	addiw	t3,a1,1
    80004b14:	00000f13          	li	t5,0
    80004b18:	10071663          	bnez	a4,80004c24 <_ftoa+0x220>
    80004b1c:	d20e07d3          	fcvt.d.w	fa5,t3
    80004b20:	0af57553          	fsub.d	fa0,fa0,fa5
    80004b24:	a2d51753          	flt.d	a4,fa0,fa3
    80004b28:	00070663          	beqz	a4,80004b34 <_ftoa+0x130>
    80004b2c:	a2a69753          	flt.d	a4,fa3,fa0
    80004b30:	00070863          	beqz	a4,80004b40 <_ftoa+0x13c>
    80004b34:	001e7713          	andi	a4,t3,1
    80004b38:	00070463          	beqz	a4,80004b40 <_ftoa+0x13c>
    80004b3c:	001e0e1b          	addiw	t3,t3,1
    80004b40:	02000613          	li	a2,32
    80004b44:	00a00813          	li	a6,10
    80004b48:	1ec30063          	beq	t1,a2,80004d28 <_ftoa+0x324>
    80004b4c:	030e673b          	remw	a4,t3,a6
    80004b50:	00130313          	addi	t1,t1,1
    80004b54:	006106b3          	add	a3,sp,t1
    80004b58:	030e4e3b          	divw	t3,t3,a6
    80004b5c:	0307071b          	addiw	a4,a4,48
    80004b60:	fee68fa3          	sb	a4,-1(a3)
    80004b64:	fe0e12e3          	bnez	t3,80004b48 <_ftoa+0x144>
    80004b68:	0038f713          	andi	a4,a7,3
    80004b6c:	00100693          	li	a3,1
    80004b70:	10d70263          	beq	a4,a3,80004c74 <_ftoa+0x270>
    80004b74:	01f00713          	li	a4,31
    80004b78:	00676e63          	bltu	a4,t1,80004b94 <_ftoa+0x190>
    80004b7c:	1c050063          	beqz	a0,80004d3c <_ftoa+0x338>
    80004b80:	02010713          	addi	a4,sp,32
    80004b84:	00670733          	add	a4,a4,t1
    80004b88:	02d00693          	li	a3,45
    80004b8c:	fed70023          	sb	a3,-32(a4)
    80004b90:	00130313          	addi	t1,t1,1
    80004b94:	00078813          	mv	a6,a5
    80004b98:	00010713          	mv	a4,sp
    80004b9c:	00030793          	mv	a5,t1
    80004ba0:	0200006f          	j	80004bc0 <_ftoa+0x1bc>
    80004ba4:	0048f713          	andi	a4,a7,4
    80004ba8:	10071863          	bnez	a4,80004cb8 <_ftoa+0x2b4>
    80004bac:	00001717          	auipc	a4,0x1
    80004bb0:	7e470713          	addi	a4,a4,2020 # 80006390 <MAP+0x498>
    80004bb4:	00300693          	li	a3,3
    80004bb8:	00078813          	mv	a6,a5
    80004bbc:	00068793          	mv	a5,a3
    80004bc0:	00008693          	mv	a3,ra
    80004bc4:	00038613          	mv	a2,t2
    80004bc8:	00028593          	mv	a1,t0
    80004bcc:	000f8513          	mv	a0,t6
    80004bd0:	ff4ff0ef          	jal	ra,800043c4 <_out_rev>
    80004bd4:	03813083          	ld	ra,56(sp)
    80004bd8:	03013403          	ld	s0,48(sp)
    80004bdc:	02813483          	ld	s1,40(sp)
    80004be0:	04010113          	addi	sp,sp,64
    80004be4:	00008067          	ret
    80004be8:	00078813          	mv	a6,a5
    80004bec:	00001717          	auipc	a4,0x1
    80004bf0:	7b470713          	addi	a4,a4,1972 # 800063a0 <MAP+0x4a8>
    80004bf4:	00300793          	li	a5,3
    80004bf8:	fccff0ef          	jal	ra,800043c4 <_out_rev>
    80004bfc:	03813083          	ld	ra,56(sp)
    80004c00:	03013403          	ld	s0,48(sp)
    80004c04:	02813483          	ld	s1,40(sp)
    80004c08:	04010113          	addi	sp,sp,64
    80004c0c:	00008067          	ret
    80004c10:	a2d796d3          	flt.d	a3,fa5,fa3
    80004c14:	f00692e3          	bnez	a3,80004b18 <_ftoa+0x114>
    80004c18:	1a0f1c63          	bnez	t5,80004dd0 <_ftoa+0x3cc>
    80004c1c:	001f0f13          	addi	t5,t5,1
    80004c20:	ee070ee3          	beqz	a4,80004b1c <_ftoa+0x118>
    80004c24:	fe07041b          	addiw	s0,a4,-32
    80004c28:	0064043b          	addw	s0,s0,t1
    80004c2c:	00a00613          	li	a2,10
    80004c30:	00900493          	li	s1,9
    80004c34:	0280006f          	j	80004c5c <_ftoa+0x258>
    80004c38:	02cf76b3          	remu	a3,t5,a2
    80004c3c:	fff7081b          	addiw	a6,a4,-1
    80004c40:	0306869b          	addiw	a3,a3,48
    80004c44:	fed58fa3          	sb	a3,-1(a1)
    80004c48:	02cf56b3          	divu	a3,t5,a2
    80004c4c:	11e4fc63          	bgeu	s1,t5,80004d64 <_ftoa+0x360>
    80004c50:	00080713          	mv	a4,a6
    80004c54:	000e8313          	mv	t1,t4
    80004c58:	00068f13          	mv	t5,a3
    80004c5c:	00130e93          	addi	t4,t1,1
    80004c60:	01d105b3          	add	a1,sp,t4
    80004c64:	fc871ae3          	bne	a4,s0,80004c38 <_ftoa+0x234>
    80004c68:	0038f713          	andi	a4,a7,3
    80004c6c:	00100693          	li	a3,1
    80004c70:	f2d712e3          	bne	a4,a3,80004b94 <_ftoa+0x190>
    80004c74:	f00780e3          	beqz	a5,80004b74 <_ftoa+0x170>
    80004c78:	16051463          	bnez	a0,80004de0 <_ftoa+0x3dc>
    80004c7c:	00c8f713          	andi	a4,a7,12
    80004c80:	16071063          	bnez	a4,80004de0 <_ftoa+0x3dc>
    80004c84:	02079693          	slli	a3,a5,0x20
    80004c88:	0206d693          	srli	a3,a3,0x20
    80004c8c:	eed374e3          	bgeu	t1,a3,80004b74 <_ftoa+0x170>
    80004c90:	01f00713          	li	a4,31
    80004c94:	03000593          	li	a1,48
    80004c98:	02000613          	li	a2,32
    80004c9c:	ee676ce3          	bltu	a4,t1,80004b94 <_ftoa+0x190>
    80004ca0:	00130313          	addi	t1,t1,1
    80004ca4:	00610733          	add	a4,sp,t1
    80004ca8:	feb70fa3          	sb	a1,-1(a4)
    80004cac:	ecd304e3          	beq	t1,a3,80004b74 <_ftoa+0x170>
    80004cb0:	fec318e3          	bne	t1,a2,80004ca0 <_ftoa+0x29c>
    80004cb4:	ee1ff06f          	j	80004b94 <_ftoa+0x190>
    80004cb8:	00001717          	auipc	a4,0x1
    80004cbc:	6e070713          	addi	a4,a4,1760 # 80006398 <MAP+0x4a0>
    80004cc0:	00400693          	li	a3,4
    80004cc4:	ef5ff06f          	j	80004bb8 <_ftoa+0x1b4>
    80004cc8:	0aa7f553          	fsub.d	fa0,fa5,fa0
    80004ccc:	00100513          	li	a0,1
    80004cd0:	db1ff06f          	j	80004a80 <_ftoa+0x7c>
    80004cd4:	00008693          	mv	a3,ra
    80004cd8:	00088813          	mv	a6,a7
    80004cdc:	00038613          	mv	a2,t2
    80004ce0:	00028593          	mv	a1,t0
    80004ce4:	000f8513          	mv	a0,t6
    80004ce8:	128000ef          	jal	ra,80004e10 <_etoa>
    80004cec:	03813083          	ld	ra,56(sp)
    80004cf0:	03013403          	ld	s0,48(sp)
    80004cf4:	02813483          	ld	s1,40(sp)
    80004cf8:	04010113          	addi	sp,sp,64
    80004cfc:	00008067          	ret
    80004d00:	00078813          	mv	a6,a5
    80004d04:	00001717          	auipc	a4,0x1
    80004d08:	6a470713          	addi	a4,a4,1700 # 800063a8 <MAP+0x4b0>
    80004d0c:	00400793          	li	a5,4
    80004d10:	eb4ff0ef          	jal	ra,800043c4 <_out_rev>
    80004d14:	03813083          	ld	ra,56(sp)
    80004d18:	03013403          	ld	s0,48(sp)
    80004d1c:	02813483          	ld	s1,40(sp)
    80004d20:	04010113          	addi	sp,sp,64
    80004d24:	00008067          	ret
    80004d28:	0038f713          	andi	a4,a7,3
    80004d2c:	00100693          	li	a3,1
    80004d30:	e6d712e3          	bne	a4,a3,80004b94 <_ftoa+0x190>
    80004d34:	f40792e3          	bnez	a5,80004c78 <_ftoa+0x274>
    80004d38:	e5dff06f          	j	80004b94 <_ftoa+0x190>
    80004d3c:	0048f713          	andi	a4,a7,4
    80004d40:	06071c63          	bnez	a4,80004db8 <_ftoa+0x3b4>
    80004d44:	0088f713          	andi	a4,a7,8
    80004d48:	e40706e3          	beqz	a4,80004b94 <_ftoa+0x190>
    80004d4c:	02010713          	addi	a4,sp,32
    80004d50:	00670733          	add	a4,a4,t1
    80004d54:	02000693          	li	a3,32
    80004d58:	fed70023          	sb	a3,-32(a4)
    80004d5c:	00130313          	addi	t1,t1,1
    80004d60:	e35ff06f          	j	80004b94 <_ftoa+0x190>
    80004d64:	02000693          	li	a3,32
    80004d68:	0ade8063          	beq	t4,a3,80004e08 <_ftoa+0x404>
    80004d6c:	ffe7071b          	addiw	a4,a4,-2
    80004d70:	06080c63          	beqz	a6,80004de8 <_ftoa+0x3e4>
    80004d74:	02071713          	slli	a4,a4,0x20
    80004d78:	00230313          	addi	t1,t1,2
    80004d7c:	02075713          	srli	a4,a4,0x20
    80004d80:	00e30733          	add	a4,t1,a4
    80004d84:	03000593          	li	a1,48
    80004d88:	02000613          	li	a2,32
    80004d8c:	001e8e93          	addi	t4,t4,1
    80004d90:	01d106b3          	add	a3,sp,t4
    80004d94:	feb68fa3          	sb	a1,-1(a3)
    80004d98:	04ce8c63          	beq	t4,a2,80004df0 <_ftoa+0x3ec>
    80004d9c:	feee98e3          	bne	t4,a4,80004d8c <_ftoa+0x388>
    80004da0:	02010693          	addi	a3,sp,32
    80004da4:	00e686b3          	add	a3,a3,a4
    80004da8:	00170313          	addi	t1,a4,1
    80004dac:	02e00713          	li	a4,46
    80004db0:	fee68023          	sb	a4,-32(a3)
    80004db4:	d8dff06f          	j	80004b40 <_ftoa+0x13c>
    80004db8:	02010713          	addi	a4,sp,32
    80004dbc:	00670733          	add	a4,a4,t1
    80004dc0:	02b00693          	li	a3,43
    80004dc4:	fed70023          	sb	a3,-32(a4)
    80004dc8:	00130313          	addi	t1,t1,1
    80004dcc:	dc9ff06f          	j	80004b94 <_ftoa+0x190>
    80004dd0:	001f7693          	andi	a3,t5,1
    80004dd4:	d40682e3          	beqz	a3,80004b18 <_ftoa+0x114>
    80004dd8:	001f0f13          	addi	t5,t5,1
    80004ddc:	e45ff06f          	j	80004c20 <_ftoa+0x21c>
    80004de0:	fff7879b          	addiw	a5,a5,-1
    80004de4:	ea1ff06f          	j	80004c84 <_ftoa+0x280>
    80004de8:	000e8713          	mv	a4,t4
    80004dec:	fb5ff06f          	j	80004da0 <_ftoa+0x39c>
    80004df0:	0038f713          	andi	a4,a7,3
    80004df4:	00100693          	li	a3,1
    80004df8:	02000313          	li	t1,32
    80004dfc:	d8d71ce3          	bne	a4,a3,80004b94 <_ftoa+0x190>
    80004e00:	e6079ce3          	bnez	a5,80004c78 <_ftoa+0x274>
    80004e04:	d91ff06f          	j	80004b94 <_ftoa+0x190>
    80004e08:	02000313          	li	t1,32
    80004e0c:	e5dff06f          	j	80004c68 <_ftoa+0x264>

0000000080004e10 <_etoa>:
    80004e10:	a2a528d3          	feq.d	a7,fa0,fa0
    80004e14:	f9010113          	addi	sp,sp,-112
    80004e18:	06813023          	sd	s0,96(sp)
    80004e1c:	04913c23          	sd	s1,88(sp)
    80004e20:	05213823          	sd	s2,80(sp)
    80004e24:	05313423          	sd	s3,72(sp)
    80004e28:	05413023          	sd	s4,64(sp)
    80004e2c:	03513c23          	sd	s5,56(sp)
    80004e30:	06113423          	sd	ra,104(sp)
    80004e34:	03613823          	sd	s6,48(sp)
    80004e38:	03713423          	sd	s7,40(sp)
    80004e3c:	03813023          	sd	s8,32(sp)
    80004e40:	01913c23          	sd	s9,24(sp)
    80004e44:	00050993          	mv	s3,a0
    80004e48:	00058a13          	mv	s4,a1
    80004e4c:	00060913          	mv	s2,a2
    80004e50:	00068a93          	mv	s5,a3
    80004e54:	00078493          	mv	s1,a5
    80004e58:	00080413          	mv	s0,a6
    80004e5c:	30088663          	beqz	a7,80005168 <_etoa+0x358>
    80004e60:	00001797          	auipc	a5,0x1
    80004e64:	7987b787          	fld	fa5,1944(a5) # 800065f8 <mainargs+0x10>
    80004e68:	a2a797d3          	flt.d	a5,fa5,fa0
    80004e6c:	2e079e63          	bnez	a5,80005168 <_etoa+0x358>
    80004e70:	00001797          	auipc	a5,0x1
    80004e74:	7807b787          	fld	fa5,1920(a5) # 800065f0 <mainargs+0x8>
    80004e78:	a2f517d3          	flt.d	a5,fa0,fa5
    80004e7c:	2e079663          	bnez	a5,80005168 <_etoa+0x358>
    80004e80:	f20007d3          	fmv.d.x	fa5,zero
    80004e84:	e20506d3          	fmv.x.d	a3,fa0
    80004e88:	a2f517d3          	flt.d	a5,fa0,fa5
    80004e8c:	00078663          	beqz	a5,80004e98 <_etoa+0x88>
    80004e90:	22a517d3          	fneg.d	fa5,fa0
    80004e94:	e20786d3          	fmv.x.d	a3,fa5
    80004e98:	40047793          	andi	a5,s0,1024
    80004e9c:	0007861b          	sext.w	a2,a5
    80004ea0:	00079463          	bnez	a5,80004ea8 <_etoa+0x98>
    80004ea4:	00600713          	li	a4,6
    80004ea8:	0346d793          	srli	a5,a3,0x34
    80004eac:	7ff7f793          	andi	a5,a5,2047
    80004eb0:	00001597          	auipc	a1,0x1
    80004eb4:	7685b707          	fld	fa4,1896(a1) # 80006618 <mainargs+0x30>
    80004eb8:	00001597          	auipc	a1,0x1
    80004ebc:	7685b787          	fld	fa5,1896(a1) # 80006620 <mainargs+0x38>
    80004ec0:	c017879b          	addiw	a5,a5,-1023
    80004ec4:	d2078653          	fcvt.d.w	fa2,a5
    80004ec8:	3ff00593          	li	a1,1023
    80004ecc:	00c69793          	slli	a5,a3,0xc
    80004ed0:	03459593          	slli	a1,a1,0x34
    80004ed4:	00c7d793          	srli	a5,a5,0xc
    80004ed8:	00b7e7b3          	or	a5,a5,a1
    80004edc:	7ae67643          	fmadd.d	fa2,fa2,fa4,fa5
    80004ee0:	f20787d3          	fmv.d.x	fa5,a5
    80004ee4:	00001597          	auipc	a1,0x1
    80004ee8:	7445b687          	fld	fa3,1860(a1) # 80006628 <mainargs+0x40>
    80004eec:	00001797          	auipc	a5,0x1
    80004ef0:	74c7b587          	fld	fa1,1868(a5) # 80006638 <mainargs+0x50>
    80004ef4:	0ad7f6d3          	fsub.d	fa3,fa5,fa3
    80004ef8:	00001797          	auipc	a5,0x1
    80004efc:	7387b787          	fld	fa5,1848(a5) # 80006630 <mainargs+0x48>
    80004f00:	00001797          	auipc	a5,0x1
    80004f04:	7107b287          	fld	ft5,1808(a5) # 80006610 <mainargs+0x28>
    80004f08:	00001797          	auipc	a5,0x1
    80004f0c:	7387b207          	fld	ft4,1848(a5) # 80006640 <mainargs+0x58>
    80004f10:	00001797          	auipc	a5,0x1
    80004f14:	7387b187          	fld	ft3,1848(a5) # 80006648 <mainargs+0x60>
    80004f18:	00001797          	auipc	a5,0x1
    80004f1c:	7387b707          	fld	fa4,1848(a5) # 80006650 <mainargs+0x68>
    80004f20:	00001797          	auipc	a5,0x1
    80004f24:	7387b007          	fld	ft0,1848(a5) # 80006658 <mainargs+0x70>
    80004f28:	62f6f6c3          	fmadd.d	fa3,fa3,fa5,fa2
    80004f2c:	00001797          	auipc	a5,0x1
    80004f30:	7347b107          	fld	ft2,1844(a5) # 80006660 <mainargs+0x78>
    80004f34:	00001797          	auipc	a5,0x1
    80004f38:	7347b607          	fld	fa2,1844(a5) # 80006668 <mainargs+0x80>
    80004f3c:	00001797          	auipc	a5,0x1
    80004f40:	7347b087          	fld	ft1,1844(a5) # 80006670 <mainargs+0x88>
    80004f44:	c2069853          	fcvt.w.d	a6,fa3,rtz
    80004f48:	d20807d3          	fcvt.d.w	fa5,a6
    80004f4c:	00080b1b          	sext.w	s6,a6
    80004f50:	2ab7f5c3          	fmadd.d	fa1,fa5,fa1,ft5
    80004f54:	c20597d3          	fcvt.w.d	a5,fa1,rtz
    80004f58:	d20786d3          	fcvt.d.w	fa3,a5
    80004f5c:	3ff7879b          	addiw	a5,a5,1023
    80004f60:	03479793          	slli	a5,a5,0x34
    80004f64:	1246f6d3          	fmul.d	fa3,fa3,ft4
    80004f68:	6a37f7c7          	fmsub.d	fa5,fa5,ft3,fa3
    80004f6c:	12f7f6d3          	fmul.d	fa3,fa5,fa5
    80004f70:	0af67653          	fsub.d	fa2,fa2,fa5
    80004f74:	02f7f7d3          	fadd.d	fa5,fa5,fa5
    80004f78:	1ae6f753          	fdiv.d	fa4,fa3,fa4
    80004f7c:	02077753          	fadd.d	fa4,fa4,ft0
    80004f80:	1ae6f753          	fdiv.d	fa4,fa3,fa4
    80004f84:	02277753          	fadd.d	fa4,fa4,ft2
    80004f88:	1ae6f753          	fdiv.d	fa4,fa3,fa4
    80004f8c:	02c77753          	fadd.d	fa4,fa4,fa2
    80004f90:	1ae7f7d3          	fdiv.d	fa5,fa5,fa4
    80004f94:	f2078753          	fmv.d.x	fa4,a5
    80004f98:	0217f7d3          	fadd.d	fa5,fa5,ft1
    80004f9c:	12e7f7d3          	fmul.d	fa5,fa5,fa4
    80004fa0:	e20788d3          	fmv.x.d	a7,fa5
    80004fa4:	f20687d3          	fmv.d.x	fa5,a3
    80004fa8:	f2088753          	fmv.d.x	fa4,a7
    80004fac:	a2e797d3          	flt.d	a5,fa5,fa4
    80004fb0:	00078863          	beqz	a5,80004fc0 <_etoa+0x1b0>
    80004fb4:	1a0777d3          	fdiv.d	fa5,fa4,ft0
    80004fb8:	fff80b1b          	addiw	s6,a6,-1
    80004fbc:	e20788d3          	fmv.x.d	a7,fa5
    80004fc0:	063b079b          	addiw	a5,s6,99
    80004fc4:	0c600c93          	li	s9,198
    80004fc8:	00fcbcb3          	sltu	s9,s9,a5
    80004fcc:	03441793          	slli	a5,s0,0x34
    80004fd0:	004c8c93          	addi	s9,s9,4
    80004fd4:	0407d463          	bgez	a5,8000501c <_etoa+0x20c>
    80004fd8:	f2068753          	fmv.d.x	fa4,a3
    80004fdc:	00001797          	auipc	a5,0x1
    80004fe0:	69c7b787          	fld	fa5,1692(a5) # 80006678 <mainargs+0x90>
    80004fe4:	a2e787d3          	fle.d	a5,fa5,fa4
    80004fe8:	1e078063          	beqz	a5,800051c8 <_etoa+0x3b8>
    80004fec:	00001797          	auipc	a5,0x1
    80004ff0:	6947b787          	fld	fa5,1684(a5) # 80006680 <mainargs+0x98>
    80004ff4:	a2f717d3          	flt.d	a5,fa4,fa5
    80004ff8:	1c078863          	beqz	a5,800051c8 <_etoa+0x3b8>
    80004ffc:	0007079b          	sext.w	a5,a4
    80005000:	00000713          	li	a4,0
    80005004:	00fb5663          	bge	s6,a5,80005010 <_etoa+0x200>
    80005008:	4167873b          	subw	a4,a5,s6
    8000500c:	fff7071b          	addiw	a4,a4,-1
    80005010:	40046413          	ori	s0,s0,1024
    80005014:	00000c93          	li	s9,0
    80005018:	00000b13          	li	s6,0
    8000501c:	00000793          	li	a5,0
    80005020:	009cf463          	bgeu	s9,s1,80005028 <_etoa+0x218>
    80005024:	419487bb          	subw	a5,s1,s9
    80005028:	00247613          	andi	a2,s0,2
    8000502c:	00060b9b          	sext.w	s7,a2
    80005030:	00060863          	beqz	a2,80005040 <_etoa+0x230>
    80005034:	001cb613          	seqz	a2,s9
    80005038:	40c00633          	neg	a2,a2
    8000503c:	00c7f7b3          	and	a5,a5,a2
    80005040:	160b1a63          	bnez	s6,800051b4 <_etoa+0x3a4>
    80005044:	f20007d3          	fmv.d.x	fa5,zero
    80005048:	a2f518d3          	flt.d	a7,fa0,fa5
    8000504c:	00088863          	beqz	a7,8000505c <_etoa+0x24c>
    80005050:	f20687d3          	fmv.d.x	fa5,a3
    80005054:	22f797d3          	fneg.d	fa5,fa5
    80005058:	e20786d3          	fmv.x.d	a3,fa5
    8000505c:	f2068553          	fmv.d.x	fa0,a3
    80005060:	fffff837          	lui	a6,0xfffff
    80005064:	7ff80813          	addi	a6,a6,2047 # fffffffffffff7ff <_end+0xffffffff7fe7a7ff>
    80005068:	01047833          	and	a6,s0,a6
    8000506c:	000a8693          	mv	a3,s5
    80005070:	00090613          	mv	a2,s2
    80005074:	000a0593          	mv	a1,s4
    80005078:	00098513          	mv	a0,s3
    8000507c:	989ff0ef          	jal	ra,80004a04 <_ftoa>
    80005080:	00050c13          	mv	s8,a0
    80005084:	0a0c8663          	beqz	s9,80005130 <_etoa+0x320>
    80005088:	02047413          	andi	s0,s0,32
    8000508c:	04500513          	li	a0,69
    80005090:	00041463          	bnez	s0,80005098 <_etoa+0x288>
    80005094:	06500513          	li	a0,101
    80005098:	000c0613          	mv	a2,s8
    8000509c:	000a8693          	mv	a3,s5
    800050a0:	000a0593          	mv	a1,s4
    800050a4:	000980e7          	jalr	s3
    800050a8:	41fb571b          	sraiw	a4,s6,0x1f
    800050ac:	00eb46b3          	xor	a3,s6,a4
    800050b0:	fffc879b          	addiw	a5,s9,-1
    800050b4:	00500593          	li	a1,5
    800050b8:	001c0613          	addi	a2,s8,1
    800050bc:	00b13423          	sd	a1,8(sp)
    800050c0:	00f13023          	sd	a5,0(sp)
    800050c4:	40e6873b          	subw	a4,a3,a4
    800050c8:	00000893          	li	a7,0
    800050cc:	00a00813          	li	a6,10
    800050d0:	01fb579b          	srliw	a5,s6,0x1f
    800050d4:	000a8693          	mv	a3,s5
    800050d8:	000a0593          	mv	a1,s4
    800050dc:	00098513          	mv	a0,s3
    800050e0:	f90ff0ef          	jal	ra,80004870 <_ntoa_long>
    800050e4:	00050c13          	mv	s8,a0
    800050e8:	040b8463          	beqz	s7,80005130 <_etoa+0x320>
    800050ec:	02049493          	slli	s1,s1,0x20
    800050f0:	41250433          	sub	s0,a0,s2
    800050f4:	0204d493          	srli	s1,s1,0x20
    800050f8:	02947c63          	bgeu	s0,s1,80005130 <_etoa+0x320>
    800050fc:	00890633          	add	a2,s2,s0
    80005100:	000a8693          	mv	a3,s5
    80005104:	00140413          	addi	s0,s0,1
    80005108:	000a0593          	mv	a1,s4
    8000510c:	02000513          	li	a0,32
    80005110:	000980e7          	jalr	s3
    80005114:	fe9464e3          	bltu	s0,s1,800050fc <_etoa+0x2ec>
    80005118:	412c07b3          	sub	a5,s8,s2
    8000511c:	00178793          	addi	a5,a5,1
    80005120:	00000713          	li	a4,0
    80005124:	0af4fa63          	bgeu	s1,a5,800051d8 <_etoa+0x3c8>
    80005128:	001c0c13          	addi	s8,s8,1
    8000512c:	00ec0c33          	add	s8,s8,a4
    80005130:	06813083          	ld	ra,104(sp)
    80005134:	06013403          	ld	s0,96(sp)
    80005138:	05813483          	ld	s1,88(sp)
    8000513c:	05013903          	ld	s2,80(sp)
    80005140:	04813983          	ld	s3,72(sp)
    80005144:	04013a03          	ld	s4,64(sp)
    80005148:	03813a83          	ld	s5,56(sp)
    8000514c:	03013b03          	ld	s6,48(sp)
    80005150:	02813b83          	ld	s7,40(sp)
    80005154:	01813c83          	ld	s9,24(sp)
    80005158:	000c0513          	mv	a0,s8
    8000515c:	02013c03          	ld	s8,32(sp)
    80005160:	07010113          	addi	sp,sp,112
    80005164:	00008067          	ret
    80005168:	00040813          	mv	a6,s0
    8000516c:	06013403          	ld	s0,96(sp)
    80005170:	06813083          	ld	ra,104(sp)
    80005174:	03013b03          	ld	s6,48(sp)
    80005178:	02813b83          	ld	s7,40(sp)
    8000517c:	02013c03          	ld	s8,32(sp)
    80005180:	01813c83          	ld	s9,24(sp)
    80005184:	00048793          	mv	a5,s1
    80005188:	000a8693          	mv	a3,s5
    8000518c:	05813483          	ld	s1,88(sp)
    80005190:	03813a83          	ld	s5,56(sp)
    80005194:	00090613          	mv	a2,s2
    80005198:	000a0593          	mv	a1,s4
    8000519c:	05013903          	ld	s2,80(sp)
    800051a0:	04013a03          	ld	s4,64(sp)
    800051a4:	00098513          	mv	a0,s3
    800051a8:	04813983          	ld	s3,72(sp)
    800051ac:	07010113          	addi	sp,sp,112
    800051b0:	855ff06f          	j	80004a04 <_ftoa>
    800051b4:	f20687d3          	fmv.d.x	fa5,a3
    800051b8:	f2088753          	fmv.d.x	fa4,a7
    800051bc:	1ae7f7d3          	fdiv.d	fa5,fa5,fa4
    800051c0:	e20786d3          	fmv.x.d	a3,fa5
    800051c4:	e81ff06f          	j	80005044 <_etoa+0x234>
    800051c8:	e4070ae3          	beqz	a4,8000501c <_etoa+0x20c>
    800051cc:	e40608e3          	beqz	a2,8000501c <_etoa+0x20c>
    800051d0:	fff7071b          	addiw	a4,a4,-1
    800051d4:	e49ff06f          	j	8000501c <_etoa+0x20c>
    800051d8:	fff90913          	addi	s2,s2,-1
    800051dc:	009904b3          	add	s1,s2,s1
    800051e0:	41848733          	sub	a4,s1,s8
    800051e4:	f45ff06f          	j	80005128 <_etoa+0x318>

00000000800051e8 <_vsnprintf>:
    800051e8:	f5010113          	addi	sp,sp,-176
    800051ec:	0a813023          	sd	s0,160(sp)
    800051f0:	08913c23          	sd	s1,152(sp)
    800051f4:	09213823          	sd	s2,144(sp)
    800051f8:	09313423          	sd	s3,136(sp)
    800051fc:	05b13423          	sd	s11,72(sp)
    80005200:	0a113423          	sd	ra,168(sp)
    80005204:	09413023          	sd	s4,128(sp)
    80005208:	07513c23          	sd	s5,120(sp)
    8000520c:	07613823          	sd	s6,112(sp)
    80005210:	07713423          	sd	s7,104(sp)
    80005214:	07813023          	sd	s8,96(sp)
    80005218:	05913c23          	sd	s9,88(sp)
    8000521c:	05a13823          	sd	s10,80(sp)
    80005220:	00058493          	mv	s1,a1
    80005224:	00060413          	mv	s0,a2
    80005228:	00068d93          	mv	s11,a3
    8000522c:	00070993          	mv	s3,a4
    80005230:	fffff917          	auipc	s2,0xfffff
    80005234:	19090913          	addi	s2,s2,400 # 800043c0 <_out_null>
    80005238:	00058463          	beqz	a1,80005240 <_vsnprintf+0x58>
    8000523c:	00050913          	mv	s2,a0
    80005240:	000dc503          	lbu	a0,0(s11)
    80005244:	00000b93          	li	s7,0
    80005248:	72050a63          	beqz	a0,8000597c <_vsnprintf+0x794>
    8000524c:	000017b7          	lui	a5,0x1
    80005250:	80078793          	addi	a5,a5,-2048 # 800 <_entry_offset+0x800>
    80005254:	02f13023          	sd	a5,32(sp)
    80005258:	000107b7          	lui	a5,0x10
    8000525c:	fff78793          	addi	a5,a5,-1 # ffff <_entry_offset+0xffff>
    80005260:	00001b17          	auipc	s6,0x1
    80005264:	150b0b13          	addi	s6,s6,336 # 800063b0 <MAP+0x4b8>
    80005268:	02f13423          	sd	a5,40(sp)
    8000526c:	00001a17          	auipc	s4,0x1
    80005270:	188a0a13          	addi	s4,s4,392 # 800063f4 <MAP+0x4fc>
    80005274:	0200006f          	j	80005294 <_vsnprintf+0xac>
    80005278:	000b8613          	mv	a2,s7
    8000527c:	00040693          	mv	a3,s0
    80005280:	00048593          	mv	a1,s1
    80005284:	001b8b93          	addi	s7,s7,1
    80005288:	000900e7          	jalr	s2
    8000528c:	000dc503          	lbu	a0,0(s11)
    80005290:	1c050063          	beqz	a0,80005450 <_vsnprintf+0x268>
    80005294:	02500793          	li	a5,37
    80005298:	001d8d93          	addi	s11,s11,1
    8000529c:	fcf51ee3          	bne	a0,a5,80005278 <_vsnprintf+0x90>
    800052a0:	00000813          	li	a6,0
    800052a4:	01000613          	li	a2,16
    800052a8:	000dc503          	lbu	a0,0(s11)
    800052ac:	001d8713          	addi	a4,s11,1
    800052b0:	00070693          	mv	a3,a4
    800052b4:	fe05079b          	addiw	a5,a0,-32
    800052b8:	0ff7f793          	andi	a5,a5,255
    800052bc:	00f66c63          	bltu	a2,a5,800052d4 <_vsnprintf+0xec>
    800052c0:	00279793          	slli	a5,a5,0x2
    800052c4:	016787b3          	add	a5,a5,s6
    800052c8:	0007a783          	lw	a5,0(a5)
    800052cc:	016787b3          	add	a5,a5,s6
    800052d0:	00078067          	jr	a5
    800052d4:	fd05079b          	addiw	a5,a0,-48
    800052d8:	0ff7f793          	andi	a5,a5,255
    800052dc:	00900613          	li	a2,9
    800052e0:	0ef67863          	bgeu	a2,a5,800053d0 <_vsnprintf+0x1e8>
    800052e4:	02a00793          	li	a5,42
    800052e8:	1cf50463          	beq	a0,a5,800054b0 <_vsnprintf+0x2c8>
    800052ec:	000d8693          	mv	a3,s11
    800052f0:	00000d13          	li	s10,0
    800052f4:	00070d93          	mv	s11,a4
    800052f8:	02e00713          	li	a4,46
    800052fc:	00000c93          	li	s9,0
    80005300:	12e50063          	beq	a0,a4,80005420 <_vsnprintf+0x238>
    80005304:	f985071b          	addiw	a4,a0,-104
    80005308:	0ff77713          	andi	a4,a4,255
    8000530c:	01200613          	li	a2,18
    80005310:	08e66063          	bltu	a2,a4,80005390 <_vsnprintf+0x1a8>
    80005314:	00271713          	slli	a4,a4,0x2
    80005318:	01470733          	add	a4,a4,s4
    8000531c:	00072703          	lw	a4,0(a4)
    80005320:	01470733          	add	a4,a4,s4
    80005324:	00070067          	jr	a4
    80005328:	00186813          	ori	a6,a6,1
    8000532c:	0008081b          	sext.w	a6,a6
    80005330:	00070d93          	mv	s11,a4
    80005334:	f75ff06f          	j	800052a8 <_vsnprintf+0xc0>
    80005338:	00286813          	ori	a6,a6,2
    8000533c:	0008081b          	sext.w	a6,a6
    80005340:	00070d93          	mv	s11,a4
    80005344:	f65ff06f          	j	800052a8 <_vsnprintf+0xc0>
    80005348:	00486813          	ori	a6,a6,4
    8000534c:	0008081b          	sext.w	a6,a6
    80005350:	00070d93          	mv	s11,a4
    80005354:	f55ff06f          	j	800052a8 <_vsnprintf+0xc0>
    80005358:	01086813          	ori	a6,a6,16
    8000535c:	0008081b          	sext.w	a6,a6
    80005360:	00070d93          	mv	s11,a4
    80005364:	f45ff06f          	j	800052a8 <_vsnprintf+0xc0>
    80005368:	00886813          	ori	a6,a6,8
    8000536c:	0008081b          	sext.w	a6,a6
    80005370:	00070d93          	mv	s11,a4
    80005374:	f35ff06f          	j	800052a8 <_vsnprintf+0xc0>
    80005378:	0016c503          	lbu	a0,1(a3)
    8000537c:	06800713          	li	a4,104
    80005380:	5ce50e63          	beq	a0,a4,8000595c <_vsnprintf+0x774>
    80005384:	08086813          	ori	a6,a6,128
    80005388:	0008081b          	sext.w	a6,a6
    8000538c:	001d8d93          	addi	s11,s11,1
    80005390:	fdb5071b          	addiw	a4,a0,-37
    80005394:	0ff77713          	andi	a4,a4,255
    80005398:	05300693          	li	a3,83
    8000539c:	ece6eee3          	bltu	a3,a4,80005278 <_vsnprintf+0x90>
    800053a0:	00001797          	auipc	a5,0x1
    800053a4:	0a078793          	addi	a5,a5,160 # 80006440 <MAP+0x548>
    800053a8:	00271713          	slli	a4,a4,0x2
    800053ac:	00f70733          	add	a4,a4,a5
    800053b0:	00072703          	lw	a4,0(a4)
    800053b4:	00f70733          	add	a4,a4,a5
    800053b8:	00070067          	jr	a4
    800053bc:	0016c503          	lbu	a0,1(a3)
    800053c0:	10086813          	ori	a6,a6,256
    800053c4:	0008081b          	sext.w	a6,a6
    800053c8:	001d8d93          	addi	s11,s11,1
    800053cc:	fc5ff06f          	j	80005390 <_vsnprintf+0x1a8>
    800053d0:	00000d13          	li	s10,0
    800053d4:	00900613          	li	a2,9
    800053d8:	0080006f          	j	800053e0 <_vsnprintf+0x1f8>
    800053dc:	00170713          	addi	a4,a4,1
    800053e0:	002d169b          	slliw	a3,s10,0x2
    800053e4:	01a687bb          	addw	a5,a3,s10
    800053e8:	0017979b          	slliw	a5,a5,0x1
    800053ec:	00a787bb          	addw	a5,a5,a0
    800053f0:	00074503          	lbu	a0,0(a4)
    800053f4:	000d8593          	mv	a1,s11
    800053f8:	fd078d1b          	addiw	s10,a5,-48
    800053fc:	fd05069b          	addiw	a3,a0,-48
    80005400:	0ff6f693          	andi	a3,a3,255
    80005404:	00070d93          	mv	s11,a4
    80005408:	fcd67ae3          	bgeu	a2,a3,800053dc <_vsnprintf+0x1f4>
    8000540c:	00070693          	mv	a3,a4
    80005410:	02e00713          	li	a4,46
    80005414:	00258d93          	addi	s11,a1,2
    80005418:	00000c93          	li	s9,0
    8000541c:	eee514e3          	bne	a0,a4,80005304 <_vsnprintf+0x11c>
    80005420:	0016c503          	lbu	a0,1(a3)
    80005424:	40086813          	ori	a6,a6,1024
    80005428:	00900613          	li	a2,9
    8000542c:	fd05071b          	addiw	a4,a0,-48
    80005430:	0ff77713          	andi	a4,a4,255
    80005434:	0008081b          	sext.w	a6,a6
    80005438:	32e67e63          	bgeu	a2,a4,80005774 <_vsnprintf+0x58c>
    8000543c:	02a00713          	li	a4,42
    80005440:	36e50863          	beq	a0,a4,800057b0 <_vsnprintf+0x5c8>
    80005444:	000d8693          	mv	a3,s11
    80005448:	001d8d93          	addi	s11,s11,1
    8000544c:	eb9ff06f          	j	80005304 <_vsnprintf+0x11c>
    80005450:	000b899b          	sext.w	s3,s7
    80005454:	008be463          	bltu	s7,s0,8000545c <_vsnprintf+0x274>
    80005458:	fff40b93          	addi	s7,s0,-1
    8000545c:	00040693          	mv	a3,s0
    80005460:	000b8613          	mv	a2,s7
    80005464:	00048593          	mv	a1,s1
    80005468:	00000513          	li	a0,0
    8000546c:	000900e7          	jalr	s2
    80005470:	0a813083          	ld	ra,168(sp)
    80005474:	0a013403          	ld	s0,160(sp)
    80005478:	09813483          	ld	s1,152(sp)
    8000547c:	09013903          	ld	s2,144(sp)
    80005480:	08013a03          	ld	s4,128(sp)
    80005484:	07813a83          	ld	s5,120(sp)
    80005488:	07013b03          	ld	s6,112(sp)
    8000548c:	06813b83          	ld	s7,104(sp)
    80005490:	06013c03          	ld	s8,96(sp)
    80005494:	05813c83          	ld	s9,88(sp)
    80005498:	05013d03          	ld	s10,80(sp)
    8000549c:	04813d83          	ld	s11,72(sp)
    800054a0:	00098513          	mv	a0,s3
    800054a4:	08813983          	ld	s3,136(sp)
    800054a8:	0b010113          	addi	sp,sp,176
    800054ac:	00008067          	ret
    800054b0:	0009a603          	lw	a2,0(s3)
    800054b4:	00898993          	addi	s3,s3,8
    800054b8:	00060d1b          	sext.w	s10,a2
    800054bc:	00064863          	bltz	a2,800054cc <_vsnprintf+0x2e4>
    800054c0:	001dc503          	lbu	a0,1(s11)
    800054c4:	002d8d93          	addi	s11,s11,2
    800054c8:	e31ff06f          	j	800052f8 <_vsnprintf+0x110>
    800054cc:	00286813          	ori	a6,a6,2
    800054d0:	001dc503          	lbu	a0,1(s11)
    800054d4:	0008081b          	sext.w	a6,a6
    800054d8:	40c00d3b          	negw	s10,a2
    800054dc:	002d8d93          	addi	s11,s11,2
    800054e0:	e19ff06f          	j	800052f8 <_vsnprintf+0x110>
    800054e4:	07800713          	li	a4,120
    800054e8:	00898c13          	addi	s8,s3,8
    800054ec:	5ce50663          	beq	a0,a4,80005ab8 <_vsnprintf+0x8d0>
    800054f0:	05800713          	li	a4,88
    800054f4:	48e50863          	beq	a0,a4,80005984 <_vsnprintf+0x79c>
    800054f8:	06f00713          	li	a4,111
    800054fc:	60e50063          	beq	a0,a4,80005afc <_vsnprintf+0x914>
    80005500:	06200713          	li	a4,98
    80005504:	32e50863          	beq	a0,a4,80005834 <_vsnprintf+0x64c>
    80005508:	fef87693          	andi	a3,a6,-17
    8000550c:	40087613          	andi	a2,a6,1024
    80005510:	06900593          	li	a1,105
    80005514:	00080713          	mv	a4,a6
    80005518:	0006869b          	sext.w	a3,a3
    8000551c:	0006061b          	sext.w	a2,a2
    80005520:	68b51063          	bne	a0,a1,80005ba0 <_vsnprintf+0x9b8>
    80005524:	00a00593          	li	a1,10
    80005528:	32060663          	beqz	a2,80005854 <_vsnprintf+0x66c>
    8000552c:	ffe6f693          	andi	a3,a3,-2
    80005530:	0006869b          	sext.w	a3,a3
    80005534:	2006f713          	andi	a4,a3,512
    80005538:	06900613          	li	a2,105
    8000553c:	0007071b          	sext.w	a4,a4
    80005540:	30c50e63          	beq	a0,a2,8000585c <_vsnprintf+0x674>
    80005544:	06400613          	li	a2,100
    80005548:	30c50a63          	beq	a0,a2,8000585c <_vsnprintf+0x674>
    8000554c:	5a071c63          	bnez	a4,80005b04 <_vsnprintf+0x91c>
    80005550:	1006f713          	andi	a4,a3,256
    80005554:	00068613          	mv	a2,a3
    80005558:	5e071c63          	bnez	a4,80005b50 <_vsnprintf+0x968>
    8000555c:	0406f713          	andi	a4,a3,64
    80005560:	58071463          	bnez	a4,80005ae8 <_vsnprintf+0x900>
    80005564:	08067613          	andi	a2,a2,128
    80005568:	0009a703          	lw	a4,0(s3)
    8000556c:	00060663          	beqz	a2,80005578 <_vsnprintf+0x390>
    80005570:	02813783          	ld	a5,40(sp)
    80005574:	00e7f733          	and	a4,a5,a4
    80005578:	02071713          	slli	a4,a4,0x20
    8000557c:	000b8613          	mv	a2,s7
    80005580:	00d13423          	sd	a3,8(sp)
    80005584:	01a13023          	sd	s10,0(sp)
    80005588:	000c8893          	mv	a7,s9
    8000558c:	00058813          	mv	a6,a1
    80005590:	00000793          	li	a5,0
    80005594:	02075713          	srli	a4,a4,0x20
    80005598:	31c0006f          	j	800058b4 <_vsnprintf+0x6cc>
    8000559c:	0016c503          	lbu	a0,1(a3)
    800055a0:	06c00713          	li	a4,108
    800055a4:	e0e51ee3          	bne	a0,a4,800053c0 <_vsnprintf+0x1d8>
    800055a8:	30086813          	ori	a6,a6,768
    800055ac:	0026c503          	lbu	a0,2(a3)
    800055b0:	0008081b          	sext.w	a6,a6
    800055b4:	00368d93          	addi	s11,a3,3
    800055b8:	dd9ff06f          	j	80005390 <_vsnprintf+0x1a8>
    800055bc:	04600713          	li	a4,70
    800055c0:	26e50463          	beq	a0,a4,80005828 <_vsnprintf+0x640>
    800055c4:	0009b507          	fld	fa0,0(s3)
    800055c8:	000b8613          	mv	a2,s7
    800055cc:	000d0793          	mv	a5,s10
    800055d0:	000c8713          	mv	a4,s9
    800055d4:	00040693          	mv	a3,s0
    800055d8:	00048593          	mv	a1,s1
    800055dc:	00090513          	mv	a0,s2
    800055e0:	c24ff0ef          	jal	ra,80004a04 <_ftoa>
    800055e4:	00898993          	addi	s3,s3,8
    800055e8:	00050b93          	mv	s7,a0
    800055ec:	ca1ff06f          	j	8000528c <_vsnprintf+0xa4>
    800055f0:	000b8613          	mv	a2,s7
    800055f4:	00040693          	mv	a3,s0
    800055f8:	00048593          	mv	a1,s1
    800055fc:	02500513          	li	a0,37
    80005600:	001b8b93          	addi	s7,s7,1
    80005604:	000900e7          	jalr	s2
    80005608:	c85ff06f          	j	8000528c <_vsnprintf+0xa4>
    8000560c:	0009bc03          	ld	s8,0(s3)
    80005610:	00898793          	addi	a5,s3,8
    80005614:	02f13c23          	sd	a5,56(sp)
    80005618:	000c4503          	lbu	a0,0(s8)
    8000561c:	1a0c9c63          	bnez	s9,800057d4 <_vsnprintf+0x5ec>
    80005620:	ffe00793          	li	a5,-2
    80005624:	54050e63          	beqz	a0,80005b80 <_vsnprintf+0x998>
    80005628:	00178793          	addi	a5,a5,1
    8000562c:	00fc0633          	add	a2,s8,a5
    80005630:	000c0713          	mv	a4,s8
    80005634:	0080006f          	j	8000563c <_vsnprintf+0x454>
    80005638:	32c70c63          	beq	a4,a2,80005970 <_vsnprintf+0x788>
    8000563c:	00174683          	lbu	a3,1(a4)
    80005640:	00170713          	addi	a4,a4,1
    80005644:	fe069ae3          	bnez	a3,80005638 <_vsnprintf+0x450>
    80005648:	418707bb          	subw	a5,a4,s8
    8000564c:	00f13c23          	sd	a5,24(sp)
    80005650:	40087713          	andi	a4,a6,1024
    80005654:	0007099b          	sext.w	s3,a4
    80005658:	00070e63          	beqz	a4,80005674 <_vsnprintf+0x48c>
    8000565c:	01813783          	ld	a5,24(sp)
    80005660:	000c8713          	mv	a4,s9
    80005664:	0197f463          	bgeu	a5,s9,8000566c <_vsnprintf+0x484>
    80005668:	00078713          	mv	a4,a5
    8000566c:	0007079b          	sext.w	a5,a4
    80005670:	00f13c23          	sd	a5,24(sp)
    80005674:	00287813          	andi	a6,a6,2
    80005678:	0008079b          	sext.w	a5,a6
    8000567c:	02f13823          	sd	a5,48(sp)
    80005680:	32080463          	beqz	a6,800059a8 <_vsnprintf+0x7c0>
    80005684:	24050e63          	beqz	a0,800058e0 <_vsnprintf+0x6f8>
    80005688:	000b8613          	mv	a2,s7
    8000568c:	00098863          	beqz	s3,8000569c <_vsnprintf+0x4b4>
    80005690:	fffc871b          	addiw	a4,s9,-1
    80005694:	220c8e63          	beqz	s9,800058d0 <_vsnprintf+0x6e8>
    80005698:	00070c93          	mv	s9,a4
    8000569c:	00040693          	mv	a3,s0
    800056a0:	00048593          	mv	a1,s1
    800056a4:	00160a93          	addi	s5,a2,1
    800056a8:	000900e7          	jalr	s2
    800056ac:	417a8733          	sub	a4,s5,s7
    800056b0:	00ec0733          	add	a4,s8,a4
    800056b4:	00074503          	lbu	a0,0(a4)
    800056b8:	20050e63          	beqz	a0,800058d4 <_vsnprintf+0x6ec>
    800056bc:	000a8613          	mv	a2,s5
    800056c0:	fcdff06f          	j	8000568c <_vsnprintf+0x4a4>
    800056c4:	02186793          	ori	a5,a6,33
    800056c8:	0009b703          	ld	a4,0(s3)
    800056cc:	0007879b          	sext.w	a5,a5
    800056d0:	00f13423          	sd	a5,8(sp)
    800056d4:	01000793          	li	a5,16
    800056d8:	000b8613          	mv	a2,s7
    800056dc:	00f13023          	sd	a5,0(sp)
    800056e0:	000c8893          	mv	a7,s9
    800056e4:	01000813          	li	a6,16
    800056e8:	00000793          	li	a5,0
    800056ec:	00040693          	mv	a3,s0
    800056f0:	00048593          	mv	a1,s1
    800056f4:	00090513          	mv	a0,s2
    800056f8:	a3cff0ef          	jal	ra,80004934 <_ntoa_long_long>
    800056fc:	00898993          	addi	s3,s3,8
    80005700:	00050b93          	mv	s7,a0
    80005704:	b89ff06f          	j	8000528c <_vsnprintf+0xa4>
    80005708:	001b8713          	addi	a4,s7,1
    8000570c:	00287813          	andi	a6,a6,2
    80005710:	00898c93          	addi	s9,s3,8
    80005714:	00070a93          	mv	s5,a4
    80005718:	2e080c63          	beqz	a6,80005a10 <_vsnprintf+0x828>
    8000571c:	0009c503          	lbu	a0,0(s3)
    80005720:	00040693          	mv	a3,s0
    80005724:	000b8613          	mv	a2,s7
    80005728:	00048593          	mv	a1,s1
    8000572c:	000900e7          	jalr	s2
    80005730:	00100713          	li	a4,1
    80005734:	3ba77e63          	bgeu	a4,s10,80005af0 <_vsnprintf+0x908>
    80005738:	ffed079b          	addiw	a5,s10,-2
    8000573c:	02079c13          	slli	s8,a5,0x20
    80005740:	020c5c13          	srli	s8,s8,0x20
    80005744:	002b8b93          	addi	s7,s7,2
    80005748:	018b8d33          	add	s10,s7,s8
    8000574c:	000a8613          	mv	a2,s5
    80005750:	00040693          	mv	a3,s0
    80005754:	001a8a93          	addi	s5,s5,1
    80005758:	00048593          	mv	a1,s1
    8000575c:	02000513          	li	a0,32
    80005760:	000900e7          	jalr	s2
    80005764:	ff5d14e3          	bne	s10,s5,8000574c <_vsnprintf+0x564>
    80005768:	018b8bb3          	add	s7,s7,s8
    8000576c:	000c8993          	mv	s3,s9
    80005770:	b1dff06f          	j	8000528c <_vsnprintf+0xa4>
    80005774:	00900693          	li	a3,9
    80005778:	002c971b          	slliw	a4,s9,0x2
    8000577c:	019708bb          	addw	a7,a4,s9
    80005780:	000d8613          	mv	a2,s11
    80005784:	0018989b          	slliw	a7,a7,0x1
    80005788:	001d8d93          	addi	s11,s11,1
    8000578c:	00a888bb          	addw	a7,a7,a0
    80005790:	000dc503          	lbu	a0,0(s11)
    80005794:	fd088c9b          	addiw	s9,a7,-48
    80005798:	fd05071b          	addiw	a4,a0,-48
    8000579c:	0ff77713          	andi	a4,a4,255
    800057a0:	fce6fce3          	bgeu	a3,a4,80005778 <_vsnprintf+0x590>
    800057a4:	000d8693          	mv	a3,s11
    800057a8:	00260d93          	addi	s11,a2,2
    800057ac:	b59ff06f          	j	80005304 <_vsnprintf+0x11c>
    800057b0:	0009a883          	lw	a7,0(s3)
    800057b4:	0026c503          	lbu	a0,2(a3)
    800057b8:	00368d93          	addi	s11,a3,3
    800057bc:	fff8c713          	not	a4,a7
    800057c0:	43f75713          	srai	a4,a4,0x3f
    800057c4:	00e8fcb3          	and	s9,a7,a4
    800057c8:	00898993          	addi	s3,s3,8
    800057cc:	00268693          	addi	a3,a3,2
    800057d0:	b35ff06f          	j	80005304 <_vsnprintf+0x11c>
    800057d4:	020c9793          	slli	a5,s9,0x20
    800057d8:	0207d793          	srli	a5,a5,0x20
    800057dc:	3a050263          	beqz	a0,80005b80 <_vsnprintf+0x998>
    800057e0:	fff78793          	addi	a5,a5,-1
    800057e4:	e45ff06f          	j	80005628 <_vsnprintf+0x440>
    800057e8:	0df57713          	andi	a4,a0,223
    800057ec:	04700693          	li	a3,71
    800057f0:	14d70463          	beq	a4,a3,80005938 <_vsnprintf+0x750>
    800057f4:	04500713          	li	a4,69
    800057f8:	14e50c63          	beq	a0,a4,80005950 <_vsnprintf+0x768>
    800057fc:	0009b507          	fld	fa0,0(s3)
    80005800:	000b8613          	mv	a2,s7
    80005804:	000d0793          	mv	a5,s10
    80005808:	000c8713          	mv	a4,s9
    8000580c:	00040693          	mv	a3,s0
    80005810:	00048593          	mv	a1,s1
    80005814:	00090513          	mv	a0,s2
    80005818:	df8ff0ef          	jal	ra,80004e10 <_etoa>
    8000581c:	00898993          	addi	s3,s3,8
    80005820:	00050b93          	mv	s7,a0
    80005824:	a69ff06f          	j	8000528c <_vsnprintf+0xa4>
    80005828:	02086813          	ori	a6,a6,32
    8000582c:	0008081b          	sext.w	a6,a6
    80005830:	d95ff06f          	j	800055c4 <_vsnprintf+0x3dc>
    80005834:	00200593          	li	a1,2
    80005838:	00080693          	mv	a3,a6
    8000583c:	4006f613          	andi	a2,a3,1024
    80005840:	06400813          	li	a6,100
    80005844:	00068713          	mv	a4,a3
    80005848:	0006061b          	sext.w	a2,a2
    8000584c:	35051e63          	bne	a0,a6,80005ba8 <_vsnprintf+0x9c0>
    80005850:	cc061ee3          	bnez	a2,8000552c <_vsnprintf+0x344>
    80005854:	20077713          	andi	a4,a4,512
    80005858:	0007071b          	sext.w	a4,a4
    8000585c:	20071c63          	bnez	a4,80005a74 <_vsnprintf+0x88c>
    80005860:	1006f713          	andi	a4,a3,256
    80005864:	00068613          	mv	a2,a3
    80005868:	2a071e63          	bnez	a4,80005b24 <_vsnprintf+0x93c>
    8000586c:	0406f713          	andi	a4,a3,64
    80005870:	0009a503          	lw	a0,0(s3)
    80005874:	26071463          	bnez	a4,80005adc <_vsnprintf+0x8f4>
    80005878:	08067613          	andi	a2,a2,128
    8000587c:	2e060a63          	beqz	a2,80005b70 <_vsnprintf+0x988>
    80005880:	0105151b          	slliw	a0,a0,0x10
    80005884:	4105551b          	sraiw	a0,a0,0x10
    80005888:	40f5561b          	sraiw	a2,a0,0xf
    8000588c:	00c54733          	xor	a4,a0,a2
    80005890:	40c7073b          	subw	a4,a4,a2
    80005894:	03071713          	slli	a4,a4,0x30
    80005898:	03075713          	srli	a4,a4,0x30
    8000589c:	000b8613          	mv	a2,s7
    800058a0:	00d13423          	sd	a3,8(sp)
    800058a4:	01a13023          	sd	s10,0(sp)
    800058a8:	000c8893          	mv	a7,s9
    800058ac:	00058813          	mv	a6,a1
    800058b0:	01f5579b          	srliw	a5,a0,0x1f
    800058b4:	00040693          	mv	a3,s0
    800058b8:	00048593          	mv	a1,s1
    800058bc:	00090513          	mv	a0,s2
    800058c0:	fb1fe0ef          	jal	ra,80004870 <_ntoa_long>
    800058c4:	00050b93          	mv	s7,a0
    800058c8:	000c0993          	mv	s3,s8
    800058cc:	9c1ff06f          	j	8000528c <_vsnprintf+0xa4>
    800058d0:	00060a93          	mv	s5,a2
    800058d4:	03013783          	ld	a5,48(sp)
    800058d8:	04078a63          	beqz	a5,8000592c <_vsnprintf+0x744>
    800058dc:	000a8b93          	mv	s7,s5
    800058e0:	01813703          	ld	a4,24(sp)
    800058e4:	13a77263          	bgeu	a4,s10,80005a08 <_vsnprintf+0x820>
    800058e8:	fffd079b          	addiw	a5,s10,-1
    800058ec:	40e7883b          	subw	a6,a5,a4
    800058f0:	02081813          	slli	a6,a6,0x20
    800058f4:	02085813          	srli	a6,a6,0x20
    800058f8:	001b8713          	addi	a4,s7,1
    800058fc:	00e80ab3          	add	s5,a6,a4
    80005900:	0080006f          	j	80005908 <_vsnprintf+0x720>
    80005904:	00170713          	addi	a4,a4,1
    80005908:	000b8613          	mv	a2,s7
    8000590c:	00e13c23          	sd	a4,24(sp)
    80005910:	00040693          	mv	a3,s0
    80005914:	00048593          	mv	a1,s1
    80005918:	02000513          	li	a0,32
    8000591c:	00070b93          	mv	s7,a4
    80005920:	000900e7          	jalr	s2
    80005924:	01813703          	ld	a4,24(sp)
    80005928:	fcea9ee3          	bne	s5,a4,80005904 <_vsnprintf+0x71c>
    8000592c:	03813983          	ld	s3,56(sp)
    80005930:	000a8b93          	mv	s7,s5
    80005934:	959ff06f          	j	8000528c <_vsnprintf+0xa4>
    80005938:	02013783          	ld	a5,32(sp)
    8000593c:	0fd57513          	andi	a0,a0,253
    80005940:	04500713          	li	a4,69
    80005944:	00f86833          	or	a6,a6,a5
    80005948:	0008081b          	sext.w	a6,a6
    8000594c:	eae518e3          	bne	a0,a4,800057fc <_vsnprintf+0x614>
    80005950:	02086813          	ori	a6,a6,32
    80005954:	0008081b          	sext.w	a6,a6
    80005958:	ea5ff06f          	j	800057fc <_vsnprintf+0x614>
    8000595c:	0c086813          	ori	a6,a6,192
    80005960:	0026c503          	lbu	a0,2(a3)
    80005964:	0008081b          	sext.w	a6,a6
    80005968:	00368d93          	addi	s11,a3,3
    8000596c:	a25ff06f          	j	80005390 <_vsnprintf+0x1a8>
    80005970:	0007879b          	sext.w	a5,a5
    80005974:	00f13c23          	sd	a5,24(sp)
    80005978:	cd9ff06f          	j	80005650 <_vsnprintf+0x468>
    8000597c:	00000993          	li	s3,0
    80005980:	ad5ff06f          	j	80005454 <_vsnprintf+0x26c>
    80005984:	ff387693          	andi	a3,a6,-13
    80005988:	0006869b          	sext.w	a3,a3
    8000598c:	40087713          	andi	a4,a6,1024
    80005990:	0206e693          	ori	a3,a3,32
    80005994:	14071063          	bnez	a4,80005ad4 <_vsnprintf+0x8ec>
    80005998:	20087713          	andi	a4,a6,512
    8000599c:	0007071b          	sext.w	a4,a4
    800059a0:	01000593          	li	a1,16
    800059a4:	ba9ff06f          	j	8000554c <_vsnprintf+0x364>
    800059a8:	01813783          	ld	a5,24(sp)
    800059ac:	0017871b          	addiw	a4,a5,1
    800059b0:	1fa7f263          	bgeu	a5,s10,80005b94 <_vsnprintf+0x9ac>
    800059b4:	fffd071b          	addiw	a4,s10,-1
    800059b8:	40f707bb          	subw	a5,a4,a5
    800059bc:	02079793          	slli	a5,a5,0x20
    800059c0:	0207d793          	srli	a5,a5,0x20
    800059c4:	001b8713          	addi	a4,s7,1
    800059c8:	00e78ab3          	add	s5,a5,a4
    800059cc:	00c0006f          	j	800059d8 <_vsnprintf+0x7f0>
    800059d0:	01813703          	ld	a4,24(sp)
    800059d4:	00170713          	addi	a4,a4,1
    800059d8:	000b8613          	mv	a2,s7
    800059dc:	00040693          	mv	a3,s0
    800059e0:	00070b93          	mv	s7,a4
    800059e4:	00e13c23          	sd	a4,24(sp)
    800059e8:	00048593          	mv	a1,s1
    800059ec:	02000513          	li	a0,32
    800059f0:	000900e7          	jalr	s2
    800059f4:	fd5b9ee3          	bne	s7,s5,800059d0 <_vsnprintf+0x7e8>
    800059f8:	000c4503          	lbu	a0,0(s8)
    800059fc:	001d079b          	addiw	a5,s10,1
    80005a00:	00f13c23          	sd	a5,24(sp)
    80005a04:	c80512e3          	bnez	a0,80005688 <_vsnprintf+0x4a0>
    80005a08:	000b8a93          	mv	s5,s7
    80005a0c:	f21ff06f          	j	8000592c <_vsnprintf+0x744>
    80005a10:	00100693          	li	a3,1
    80005a14:	17a6fa63          	bgeu	a3,s10,80005b88 <_vsnprintf+0x9a0>
    80005a18:	ffed079b          	addiw	a5,s10,-2
    80005a1c:	02079c13          	slli	s8,a5,0x20
    80005a20:	020c5c13          	srli	s8,s8,0x20
    80005a24:	00ec0c33          	add	s8,s8,a4
    80005a28:	00c0006f          	j	80005a34 <_vsnprintf+0x84c>
    80005a2c:	01813703          	ld	a4,24(sp)
    80005a30:	00170713          	addi	a4,a4,1
    80005a34:	000b8613          	mv	a2,s7
    80005a38:	00040693          	mv	a3,s0
    80005a3c:	00070b93          	mv	s7,a4
    80005a40:	00e13c23          	sd	a4,24(sp)
    80005a44:	00048593          	mv	a1,s1
    80005a48:	02000513          	li	a0,32
    80005a4c:	000900e7          	jalr	s2
    80005a50:	fd8b9ee3          	bne	s7,s8,80005a2c <_vsnprintf+0x844>
    80005a54:	001b8b93          	addi	s7,s7,1
    80005a58:	0009c503          	lbu	a0,0(s3)
    80005a5c:	00040693          	mv	a3,s0
    80005a60:	000c0613          	mv	a2,s8
    80005a64:	00048593          	mv	a1,s1
    80005a68:	000900e7          	jalr	s2
    80005a6c:	000c8993          	mv	s3,s9
    80005a70:	81dff06f          	j	8000528c <_vsnprintf+0xa4>
    80005a74:	0009b783          	ld	a5,0(s3)
    80005a78:	00d13423          	sd	a3,8(sp)
    80005a7c:	000b8613          	mv	a2,s7
    80005a80:	43f7d713          	srai	a4,a5,0x3f
    80005a84:	00f746b3          	xor	a3,a4,a5
    80005a88:	01a13023          	sd	s10,0(sp)
    80005a8c:	000c8893          	mv	a7,s9
    80005a90:	00058813          	mv	a6,a1
    80005a94:	03f7d793          	srli	a5,a5,0x3f
    80005a98:	40e68733          	sub	a4,a3,a4
    80005a9c:	00040693          	mv	a3,s0
    80005aa0:	00048593          	mv	a1,s1
    80005aa4:	00090513          	mv	a0,s2
    80005aa8:	e8dfe0ef          	jal	ra,80004934 <_ntoa_long_long>
    80005aac:	00050b93          	mv	s7,a0
    80005ab0:	000c0993          	mv	s3,s8
    80005ab4:	fd8ff06f          	j	8000528c <_vsnprintf+0xa4>
    80005ab8:	40087613          	andi	a2,a6,1024
    80005abc:	0006061b          	sext.w	a2,a2
    80005ac0:	01000593          	li	a1,16
    80005ac4:	ff387693          	andi	a3,a6,-13
    80005ac8:	0006869b          	sext.w	a3,a3
    80005acc:	a60604e3          	beqz	a2,80005534 <_vsnprintf+0x34c>
    80005ad0:	a5dff06f          	j	8000552c <_vsnprintf+0x344>
    80005ad4:	01000593          	li	a1,16
    80005ad8:	a55ff06f          	j	8000552c <_vsnprintf+0x344>
    80005adc:	0ff57513          	andi	a0,a0,255
    80005ae0:	00050713          	mv	a4,a0
    80005ae4:	db9ff06f          	j	8000589c <_vsnprintf+0x6b4>
    80005ae8:	0009c703          	lbu	a4,0(s3)
    80005aec:	a8dff06f          	j	80005578 <_vsnprintf+0x390>
    80005af0:	000a8b93          	mv	s7,s5
    80005af4:	000c8993          	mv	s3,s9
    80005af8:	f94ff06f          	j	8000528c <_vsnprintf+0xa4>
    80005afc:	00800593          	li	a1,8
    80005b00:	d39ff06f          	j	80005838 <_vsnprintf+0x650>
    80005b04:	0009b703          	ld	a4,0(s3)
    80005b08:	000b8613          	mv	a2,s7
    80005b0c:	00d13423          	sd	a3,8(sp)
    80005b10:	01a13023          	sd	s10,0(sp)
    80005b14:	000c8893          	mv	a7,s9
    80005b18:	00058813          	mv	a6,a1
    80005b1c:	00000793          	li	a5,0
    80005b20:	f7dff06f          	j	80005a9c <_vsnprintf+0x8b4>
    80005b24:	0009b783          	ld	a5,0(s3)
    80005b28:	00d13423          	sd	a3,8(sp)
    80005b2c:	000b8613          	mv	a2,s7
    80005b30:	43f7d713          	srai	a4,a5,0x3f
    80005b34:	00f746b3          	xor	a3,a4,a5
    80005b38:	01a13023          	sd	s10,0(sp)
    80005b3c:	000c8893          	mv	a7,s9
    80005b40:	00058813          	mv	a6,a1
    80005b44:	03f7d793          	srli	a5,a5,0x3f
    80005b48:	40e68733          	sub	a4,a3,a4
    80005b4c:	d69ff06f          	j	800058b4 <_vsnprintf+0x6cc>
    80005b50:	0009b703          	ld	a4,0(s3)
    80005b54:	000b8613          	mv	a2,s7
    80005b58:	00d13423          	sd	a3,8(sp)
    80005b5c:	01a13023          	sd	s10,0(sp)
    80005b60:	000c8893          	mv	a7,s9
    80005b64:	00058813          	mv	a6,a1
    80005b68:	00000793          	li	a5,0
    80005b6c:	d49ff06f          	j	800058b4 <_vsnprintf+0x6cc>
    80005b70:	41f5561b          	sraiw	a2,a0,0x1f
    80005b74:	00c54733          	xor	a4,a0,a2
    80005b78:	40c7073b          	subw	a4,a4,a2
    80005b7c:	d21ff06f          	j	8000589c <_vsnprintf+0x6b4>
    80005b80:	00013c23          	sd	zero,24(sp)
    80005b84:	acdff06f          	j	80005650 <_vsnprintf+0x468>
    80005b88:	000b8c13          	mv	s8,s7
    80005b8c:	00070b93          	mv	s7,a4
    80005b90:	ec9ff06f          	j	80005a58 <_vsnprintf+0x870>
    80005b94:	00e13c23          	sd	a4,24(sp)
    80005b98:	ae0518e3          	bnez	a0,80005688 <_vsnprintf+0x4a0>
    80005b9c:	e6dff06f          	j	80005a08 <_vsnprintf+0x820>
    80005ba0:	00a00593          	li	a1,10
    80005ba4:	c99ff06f          	j	8000583c <_vsnprintf+0x654>
    80005ba8:	00068813          	mv	a6,a3
    80005bac:	f19ff06f          	j	80005ac4 <_vsnprintf+0x8dc>

0000000080005bb0 <printf>:
    80005bb0:	fa010113          	addi	sp,sp,-96
    80005bb4:	02810313          	addi	t1,sp,40
    80005bb8:	02b13423          	sd	a1,40(sp)
    80005bbc:	02c13823          	sd	a2,48(sp)
    80005bc0:	02d13c23          	sd	a3,56(sp)
    80005bc4:	04e13023          	sd	a4,64(sp)
    80005bc8:	00050693          	mv	a3,a0
    80005bcc:	00010593          	mv	a1,sp
    80005bd0:	00030713          	mv	a4,t1
    80005bd4:	fff00613          	li	a2,-1
    80005bd8:	fffff517          	auipc	a0,0xfffff
    80005bdc:	e2050513          	addi	a0,a0,-480 # 800049f8 <_out_char>
    80005be0:	00113c23          	sd	ra,24(sp)
    80005be4:	04f13423          	sd	a5,72(sp)
    80005be8:	05013823          	sd	a6,80(sp)
    80005bec:	05113c23          	sd	a7,88(sp)
    80005bf0:	00613423          	sd	t1,8(sp)
    80005bf4:	df4ff0ef          	jal	ra,800051e8 <_vsnprintf>
    80005bf8:	01813083          	ld	ra,24(sp)
    80005bfc:	06010113          	addi	sp,sp,96
    80005c00:	00008067          	ret
