
/home/lin/SpinalProjects/DandRiscvSoC/ysyx-workbench/am-kernels/kernels/slider/build/slider-riscv64-nemu.elf:     file format elf64-littleriscv


Disassembly of section .text:

0000000080000000 <_start>:
    80000000:	00000413          	li	s0,0
    80000004:	000f3117          	auipc	sp,0xf3
    80000008:	ffc10113          	addi	sp,sp,-4 # 800f3000 <_end>
    8000000c:	440000ef          	jal	ra,8000044c <_trm_init>

0000000080000010 <main>:
    80000010:	f9010113          	addi	sp,sp,-112
    80000014:	05313423          	sd	s3,72(sp)
    80000018:	04b00993          	li	s3,75
    8000001c:	06113423          	sd	ra,104(sp)
    80000020:	06813023          	sd	s0,96(sp)
    80000024:	04913c23          	sd	s1,88(sp)
    80000028:	05213823          	sd	s2,80(sp)
    8000002c:	05413023          	sd	s4,64(sp)
    80000030:	03513c23          	sd	s5,56(sp)
    80000034:	03613823          	sd	s6,48(sp)
    80000038:	03713423          	sd	s7,40(sp)
    8000003c:	03813023          	sd	s8,32(sp)
    80000040:	02299993          	slli	s3,s3,0x22
    80000044:	154000ef          	jal	ra,80000198 <ioe_init>
    80000048:	00100793          	li	a5,1
    8000004c:	00000b17          	auipc	s6,0x0
    80000050:	4e4b0b13          	addi	s6,s6,1252 # 80000530 <image>
    80000054:	19098993          	addi	s3,s3,400
    80000058:	00010593          	mv	a1,sp
    8000005c:	00b00513          	li	a0,11
    80000060:	000eba17          	auipc	s4,0xeb
    80000064:	ad8a0a13          	addi	s4,s4,-1320 # 800eab38 <lut>
    80000068:	00f10c23          	sb	a5,24(sp)
    8000006c:	00013023          	sd	zero,0(sp)
    80000070:	01613423          	sd	s6,8(sp)
    80000074:	01313823          	sd	s3,16(sp)
    80000078:	416a0a33          	sub	s4,s4,s6
    8000007c:	194000ef          	jal	ra,80000210 <ioe_write>
    80000080:	408a5a13          	srai	s4,s4,0x8
    80000084:	00000797          	auipc	a5,0x0
    80000088:	49c7b783          	ld	a5,1180(a5) # 80000520 <_etext+0xb4>
    8000008c:	02fa0a33          	mul	s4,s4,a5
    80000090:	000014b7          	lui	s1,0x1
    80000094:	00075ab7          	lui	s5,0x75
    80000098:	00000413          	li	s0,0
    8000009c:	00000c13          	li	s8,0
    800000a0:	3e800913          	li	s2,1000
    800000a4:	38848493          	addi	s1,s1,904 # 1388 <_entry_offset+0x1388>
    800000a8:	300a8a93          	addi	s5,s5,768 # 75300 <_entry_offset+0x75300>
    800000ac:	00100b93          	li	s7,1
    800000b0:	00010593          	mv	a1,sp
    800000b4:	00600513          	li	a0,6
    800000b8:	13c000ef          	jal	ra,800001f4 <ioe_read>
    800000bc:	00013783          	ld	a5,0(sp)
    800000c0:	0327d7b3          	divu	a5,a5,s2
    800000c4:	40878733          	sub	a4,a5,s0
    800000c8:	fee4f4e3          	bgeu	s1,a4,800000b0 <main+0xa0>
    800000cc:	001c071b          	addiw	a4,s8,1
    800000d0:	03476733          	rem	a4,a4,s4
    800000d4:	00078413          	mv	s0,a5
    800000d8:	00010593          	mv	a1,sp
    800000dc:	00b00513          	li	a0,11
    800000e0:	00013023          	sd	zero,0(sp)
    800000e4:	01313823          	sd	s3,16(sp)
    800000e8:	01710c23          	sb	s7,24(sp)
    800000ec:	035707b3          	mul	a5,a4,s5
    800000f0:	00070c1b          	sext.w	s8,a4
    800000f4:	00fb07b3          	add	a5,s6,a5
    800000f8:	00f13423          	sd	a5,8(sp)
    800000fc:	114000ef          	jal	ra,80000210 <ioe_write>
    80000100:	fb1ff06f          	j	800000b0 <main+0xa0>

0000000080000104 <__am_timer_config>:
    80000104:	00100793          	li	a5,1
    80000108:	00f50023          	sb	a5,0(a0)
    8000010c:	00f500a3          	sb	a5,1(a0)
    80000110:	00008067          	ret

0000000080000114 <__am_input_config>:
    80000114:	00100793          	li	a5,1
    80000118:	00f50023          	sb	a5,0(a0)
    8000011c:	00008067          	ret

0000000080000120 <__am_uart_config>:
    80000120:	00050023          	sb	zero,0(a0)
    80000124:	00008067          	ret

0000000080000128 <__am_net_config>:
    80000128:	00050023          	sb	zero,0(a0)
    8000012c:	00008067          	ret

0000000080000130 <fail>:
    80000130:	ff010113          	addi	sp,sp,-16
    80000134:	00813023          	sd	s0,0(sp)
    80000138:	00113423          	sd	ra,8(sp)
    8000013c:	00000417          	auipc	s0,0x0
    80000140:	33440413          	addi	s0,s0,820 # 80000470 <_etext+0x4>
    80000144:	04100513          	li	a0,65
    80000148:	00140413          	addi	s0,s0,1
    8000014c:	2e8000ef          	jal	ra,80000434 <putch>
    80000150:	00044503          	lbu	a0,0(s0)
    80000154:	fe051ae3          	bnez	a0,80000148 <fail+0x18>
    80000158:	00000417          	auipc	s0,0x0
    8000015c:	32840413          	addi	s0,s0,808 # 80000480 <_etext+0x14>
    80000160:	06100513          	li	a0,97
    80000164:	00140413          	addi	s0,s0,1
    80000168:	2cc000ef          	jal	ra,80000434 <putch>
    8000016c:	00044503          	lbu	a0,0(s0)
    80000170:	fe051ae3          	bnez	a0,80000164 <fail+0x34>
    80000174:	00000417          	auipc	s0,0x0
    80000178:	32c40413          	addi	s0,s0,812 # 800004a0 <_etext+0x34>
    8000017c:	02000513          	li	a0,32
    80000180:	00140413          	addi	s0,s0,1
    80000184:	2b0000ef          	jal	ra,80000434 <putch>
    80000188:	00044503          	lbu	a0,0(s0)
    8000018c:	fe051ae3          	bnez	a0,80000180 <fail+0x50>
    80000190:	00100513          	li	a0,1
    80000194:	2ac000ef          	jal	ra,80000440 <halt>

0000000080000198 <ioe_init>:
    80000198:	ff010113          	addi	sp,sp,-16
    8000019c:	00113423          	sd	ra,8(sp)
    800001a0:	000eb797          	auipc	a5,0xeb
    800001a4:	99878793          	addi	a5,a5,-1640 # 800eab38 <lut>
    800001a8:	000eb697          	auipc	a3,0xeb
    800001ac:	d9068693          	addi	a3,a3,-624 # 800eaf38 <_bss_start>
    800001b0:	00000617          	auipc	a2,0x0
    800001b4:	f8060613          	addi	a2,a2,-128 # 80000130 <fail>
    800001b8:	00c0006f          	j	800001c4 <ioe_init+0x2c>
    800001bc:	00878793          	addi	a5,a5,8
    800001c0:	00d78c63          	beq	a5,a3,800001d8 <ioe_init+0x40>
    800001c4:	0007b703          	ld	a4,0(a5)
    800001c8:	fe071ae3          	bnez	a4,800001bc <ioe_init+0x24>
    800001cc:	00c7b023          	sd	a2,0(a5)
    800001d0:	00878793          	addi	a5,a5,8
    800001d4:	fed798e3          	bne	a5,a3,800001c4 <ioe_init+0x2c>
    800001d8:	0bc000ef          	jal	ra,80000294 <__am_gpu_init>
    800001dc:	038000ef          	jal	ra,80000214 <__am_timer_init>
    800001e0:	228000ef          	jal	ra,80000408 <__am_audio_init>
    800001e4:	00813083          	ld	ra,8(sp)
    800001e8:	00100513          	li	a0,1
    800001ec:	01010113          	addi	sp,sp,16
    800001f0:	00008067          	ret

00000000800001f4 <ioe_read>:
    800001f4:	00351793          	slli	a5,a0,0x3
    800001f8:	000eb517          	auipc	a0,0xeb
    800001fc:	94050513          	addi	a0,a0,-1728 # 800eab38 <lut>
    80000200:	00f50533          	add	a0,a0,a5
    80000204:	00053303          	ld	t1,0(a0)
    80000208:	00058513          	mv	a0,a1
    8000020c:	00030067          	jr	t1

0000000080000210 <ioe_write>:
    80000210:	fe5ff06f          	j	800001f4 <ioe_read>

0000000080000214 <__am_timer_init>:
    80000214:	100007b7          	lui	a5,0x10000
    80000218:	0407a023          	sw	zero,64(a5) # 10000040 <_entry_offset+0x10000040>
    8000021c:	0407a223          	sw	zero,68(a5)
    80000220:	00008067          	ret

0000000080000224 <__am_timer_uptime>:
    80000224:	100007b7          	lui	a5,0x10000
    80000228:	0407a703          	lw	a4,64(a5) # 10000040 <_entry_offset+0x10000040>
    8000022c:	0447a783          	lw	a5,68(a5)
    80000230:	02071713          	slli	a4,a4,0x20
    80000234:	02075713          	srli	a4,a4,0x20
    80000238:	02079793          	slli	a5,a5,0x20
    8000023c:	00e787b3          	add	a5,a5,a4
    80000240:	00f53023          	sd	a5,0(a0)
    80000244:	00008067          	ret

0000000080000248 <__am_timer_rtc>:
    80000248:	76c00793          	li	a5,1900
    8000024c:	00052a23          	sw	zero,20(a0)
    80000250:	00052823          	sw	zero,16(a0)
    80000254:	00052623          	sw	zero,12(a0)
    80000258:	00052423          	sw	zero,8(a0)
    8000025c:	00052223          	sw	zero,4(a0)
    80000260:	00f52023          	sw	a5,0(a0)
    80000264:	00008067          	ret

0000000080000268 <__am_input_keybrd>:
    80000268:	100007b7          	lui	a5,0x10000
    8000026c:	0207a783          	lw	a5,32(a5) # 10000020 <_entry_offset+0x10000020>
    80000270:	ffff86b7          	lui	a3,0xffff8
    80000274:	fff68693          	addi	a3,a3,-1 # ffffffffffff7fff <_end+0xffffffff7ff04fff>
    80000278:	0007879b          	sext.w	a5,a5
    8000027c:	40f7d71b          	sraiw	a4,a5,0xf
    80000280:	00177713          	andi	a4,a4,1
    80000284:	00d7f7b3          	and	a5,a5,a3
    80000288:	00e50023          	sb	a4,0(a0)
    8000028c:	00f52223          	sw	a5,4(a0)
    80000290:	00008067          	ret

0000000080000294 <__am_gpu_init>:
    80000294:	0000a7b7          	lui	a5,0xa
    80000298:	c3f78793          	addi	a5,a5,-961 # 9c3f <_entry_offset+0x9c3f>
    8000029c:	00014537          	lui	a0,0x14
    800002a0:	000275b7          	lui	a1,0x27
    800002a4:	fffec637          	lui	a2,0xfffec
    800002a8:	000106b7          	lui	a3,0x10
    800002ac:	11000737          	lui	a4,0x11000
    800002b0:	87e50513          	addi	a0,a0,-1922 # 1387e <_entry_offset+0x1387e>
    800002b4:	0ff58593          	addi	a1,a1,255 # 270ff <_entry_offset+0x270ff>
    800002b8:	7816061b          	addiw	a2,a2,1921
    800002bc:	00078893          	mv	a7,a5
    800002c0:	0ff00813          	li	a6,255
    800002c4:	f0068e1b          	addiw	t3,a3,-256
    800002c8:	00ff0337          	lui	t1,0xff0
    800002cc:	0140006f          	j	800002e0 <__am_gpu_init+0x4c>
    800002d0:	00672023          	sw	t1,0(a4) # 11000000 <_entry_offset+0x11000000>
    800002d4:	0017879b          	addiw	a5,a5,1
    800002d8:	00470713          	addi	a4,a4,4
    800002dc:	02b78063          	beq	a5,a1,800002fc <__am_gpu_init+0x68>
    800002e0:	00f606bb          	addw	a3,a2,a5
    800002e4:	fef576e3          	bgeu	a0,a5,800002d0 <__am_gpu_init+0x3c>
    800002e8:	00d8fc63          	bgeu	a7,a3,80000300 <__am_gpu_init+0x6c>
    800002ec:	01072023          	sw	a6,0(a4)
    800002f0:	0017879b          	addiw	a5,a5,1
    800002f4:	00470713          	addi	a4,a4,4
    800002f8:	feb794e3          	bne	a5,a1,800002e0 <__am_gpu_init+0x4c>
    800002fc:	00008067          	ret
    80000300:	01c72023          	sw	t3,0(a4)
    80000304:	0017879b          	addiw	a5,a5,1
    80000308:	00470713          	addi	a4,a4,4
    8000030c:	fd5ff06f          	j	800002e0 <__am_gpu_init+0x4c>

0000000080000310 <__am_gpu_config>:
    80000310:	00000797          	auipc	a5,0x0
    80000314:	20078793          	addi	a5,a5,512 # 80000510 <_etext+0xa4>
    80000318:	0007a603          	lw	a2,0(a5)
    8000031c:	0047a683          	lw	a3,4(a5)
    80000320:	0087a703          	lw	a4,8(a5)
    80000324:	00c7a783          	lw	a5,12(a5)
    80000328:	00c52023          	sw	a2,0(a0)
    8000032c:	00d52223          	sw	a3,4(a0)
    80000330:	00e52423          	sw	a4,8(a0)
    80000334:	00f52623          	sw	a5,12(a0)
    80000338:	00008067          	ret

000000008000033c <__am_gpu_fbdraw>:
    8000033c:	01452283          	lw	t0,20(a0)
    80000340:	ff010113          	addi	sp,sp,-16
    80000344:	00813423          	sd	s0,8(sp)
    80000348:	00913023          	sd	s1,0(sp)
    8000034c:	00853e83          	ld	t4,8(a0)
    80000350:	00052403          	lw	s0,0(a0)
    80000354:	00452783          	lw	a5,4(a0)
    80000358:	01052f83          	lw	t6,16(a0)
    8000035c:	06505e63          	blez	t0,800003d8 <__am_gpu_fbdraw+0x9c>
    80000360:	19000313          	li	t1,400
    80000364:	02f3033b          	mulw	t1,t1,a5
    80000368:	ffff8f1b          	addiw	t5,t6,-1
    8000036c:	020f1f13          	slli	t5,t5,0x20
    80000370:	000f839b          	sext.w	t2,t6
    80000374:	00000893          	li	a7,0
    80000378:	00000e13          	li	t3,0
    8000037c:	020f5f13          	srli	t5,t5,0x20
    80000380:	004e8493          	addi	s1,t4,4
    80000384:	11000837          	lui	a6,0x11000
    80000388:	05f05063          	blez	t6,800003c8 <__am_gpu_fbdraw+0x8c>
    8000038c:	00640633          	add	a2,s0,t1
    80000390:	00289793          	slli	a5,a7,0x2
    80000394:	011f05b3          	add	a1,t5,a7
    80000398:	00261613          	slli	a2,a2,0x2
    8000039c:	40f60633          	sub	a2,a2,a5
    800003a0:	00259593          	slli	a1,a1,0x2
    800003a4:	00fe87b3          	add	a5,t4,a5
    800003a8:	009585b3          	add	a1,a1,s1
    800003ac:	41d60633          	sub	a2,a2,t4
    800003b0:	0007a683          	lw	a3,0(a5)
    800003b4:	00c78733          	add	a4,a5,a2
    800003b8:	00e80733          	add	a4,a6,a4
    800003bc:	00d72023          	sw	a3,0(a4)
    800003c0:	00478793          	addi	a5,a5,4
    800003c4:	feb796e3          	bne	a5,a1,800003b0 <__am_gpu_fbdraw+0x74>
    800003c8:	001e0e1b          	addiw	t3,t3,1
    800003cc:	1903031b          	addiw	t1,t1,400
    800003d0:	007888bb          	addw	a7,a7,t2
    800003d4:	fbc29ae3          	bne	t0,t3,80000388 <__am_gpu_fbdraw+0x4c>
    800003d8:	01854783          	lbu	a5,24(a0)
    800003dc:	00078863          	beqz	a5,800003ec <__am_gpu_fbdraw+0xb0>
    800003e0:	100007b7          	lui	a5,0x10000
    800003e4:	00100713          	li	a4,1
    800003e8:	10e7a223          	sw	a4,260(a5) # 10000104 <_entry_offset+0x10000104>
    800003ec:	00813403          	ld	s0,8(sp)
    800003f0:	00013483          	ld	s1,0(sp)
    800003f4:	01010113          	addi	sp,sp,16
    800003f8:	00008067          	ret

00000000800003fc <__am_gpu_status>:
    800003fc:	00100793          	li	a5,1
    80000400:	00f50023          	sb	a5,0(a0)
    80000404:	00008067          	ret

0000000080000408 <__am_audio_init>:
    80000408:	00008067          	ret

000000008000040c <__am_audio_config>:
    8000040c:	00050023          	sb	zero,0(a0)
    80000410:	00008067          	ret

0000000080000414 <__am_audio_ctrl>:
    80000414:	00008067          	ret

0000000080000418 <__am_audio_status>:
    80000418:	00052023          	sw	zero,0(a0)
    8000041c:	00008067          	ret

0000000080000420 <__am_audio_play>:
    80000420:	00008067          	ret

0000000080000424 <__am_disk_config>:
    80000424:	00050023          	sb	zero,0(a0)
    80000428:	00008067          	ret

000000008000042c <__am_disk_status>:
    8000042c:	00008067          	ret

0000000080000430 <__am_disk_blkio>:
    80000430:	00008067          	ret

0000000080000434 <putch>:
    80000434:	100007b7          	lui	a5,0x10000
    80000438:	00a78023          	sb	a0,0(a5) # 10000000 <_entry_offset+0x10000000>
    8000043c:	00008067          	ret

0000000080000440 <halt>:
    80000440:	00050513          	mv	a0,a0
    80000444:	00100073          	ebreak
    80000448:	0000006f          	j	80000448 <halt+0x8>

000000008000044c <_trm_init>:
    8000044c:	ff010113          	addi	sp,sp,-16
    80000450:	00000517          	auipc	a0,0x0
    80000454:	0d850513          	addi	a0,a0,216 # 80000528 <mainargs>
    80000458:	00113423          	sd	ra,8(sp)
    8000045c:	bb5ff0ef          	jal	ra,80000010 <main>
    80000460:	00050513          	mv	a0,a0
    80000464:	00100073          	ebreak
    80000468:	0000006f          	j	80000468 <_trm_init+0x1c>
